1 /* decode_line - Read and decode hex bytes from INFILE.
2 This function has a buffer overflow vulnerability. */

3 void decode_line(FILE *infile) {
4 unsigned char buf[BUFFER_SIZE];
5 unsigned char *sp = buf;
6 int c;
7 while ((c = get_hex_byte(infile)) != EOF && c != ’\n’) {
8   *sp++ = c;
9 }
10 *sp = ’\0’;
11 print_line(buf);
12 }

1 void touch1(void) {
2 vlevel = 1;                             /* Part of validation protocol */
3 puts("Touch1!: You called touch1()");
4 validate(1, true);
5 exit(0);
6 }

1 void test(FILE *infile) {
2 decode_line(infile);
3 exit(0);
4 }

Dump of assembler code for function decode_line:
   0x0000000000402872 <+0>:     push   %rbp
   0x0000000000402873 <+1>:     push   %rbx      
   0x0000000000402874 <+2>:     sub    $0x18,%rsp
   0x0000000000402878 <+6>:     mov    %rdi,%rbp 
   0x000000000040287b <+9>:     mov    %rsp,%rbx 
   0x000000000040287e <+12>:    jmp    0x402886 <decode_line+20>
   0x0000000000402880 <+14>:    mov    %al,(%rbx)
   0x0000000000402882 <+16>:    lea    0x1(%rbx),%rbx
   0x0000000000402886 <+20>:    mov    %rbp,%rdi
   0x0000000000402889 <+23>:    addr32 call 0x4033d9 <get_hex_byte>
   0x000000000040288f <+29>:    cmp    $0xffffffff,%eax
   0x0000000000402892 <+32>:    je     0x402899 <decode_line+39>
   0x0000000000402894 <+34>:    cmp    $0xa,%eax
   0x0000000000402897 <+37>:    jne    0x402880 <decode_line+14>
   0x0000000000402899 <+39>:    movb   $0x0,(%rbx)
   0x000000000040289c <+42>:    mov    %rsp,%rdi
   0x000000000040289f <+45>:    addr32 call 0x40334c <print_line>
   0x00000000004028a5 <+51>:    add    $0x18,%rsp
   0x00000000004028a9 <+55>:    pop    %rbx
   0x00000000004028aa <+56>:    pop    %rbp
   0x00000000004028ab <+57>:    ret   

Dump of assembler code for function touch1:
   0x00000000004029ec <+0>:     push   %rbp
   0x00000000004029ed <+1>:     mov    %rsp,%rbp
   0x00000000004029f0 <+4>:     and    $0xfffffffffffffff0,%rsp
   0x00000000004029f4 <+8>:     movl   $0x1,0x369e(%rip)        # 0x40609c <vlevel>
   0x00000000004029fe <+18>:    lea    0x1792(%rip),%rdi        # 0x404197
   0x0000000000402a05 <+25>:    call   *0x34d5(%rip)        # 0x405ee0
   0x0000000000402a0b <+31>:    mov    $0x1,%esi
   0x0000000000402a10 <+36>:    mov    $0x1,%edi
   0x0000000000402a15 <+41>:    addr32 call 0x402b04 <validate>

Dump of assembler code for function test:
   0x0000000000402aeb <+0>:     push   %rax
   0x0000000000402aec <+1>:     pop    %rax
   0x0000000000402aed <+2>:     sub    $0x8,%rsp
   0x0000000000402af1 <+6>:     addr32 call 0x402872 <decode_line>
   0x0000000000402af7 <+12>:    movzbl 0x1716(%rip),%edi        # 0x404214 <is_checker>
   0x0000000000402afe <+19>:    call   *0x34b4(%rip)        # 0x405fb8

ctarget:     file format elf64-x86-64


Disassembly of section .init:

0000000000402000 <_init>:
  402000:       f3 0f 1e fa             endbr64
  402004:       48 83 ec 08             sub    $0x8,%rsp
  402008:       48 8b 05 29 3f 00 00    mov    0x3f29(%rip),%rax        # 405f38                        <__gmon_start__@Base>
  40200f:       48 85 c0                test   %rax,%rax
  402012:       74 02                   je     402016 <_init+0x16>
  402014:       ff d0                   call   *%rax
  402016:       48 83 c4 08             add    $0x8,%rsp
  40201a:       c3                      ret

Disassembly of section .text:

0000000000402020 <_start>:
  402020:       f3 0f 1e fa             endbr64
  402024:       31 ed                   xor    %ebp,%ebp
  402026:       49 89 d1                mov    %rdx,%r9
  402029:       5e                      pop    %rsi
  40202a:       48 89 e2                mov    %rsp,%rdx
  40202d:       48 83 e4 f0             and    $0xfffffffffffffff0,%rsp
  402031:       50                      push   %rax
  402032:       54                      push   %rsp
  402033:       45 31 c0                xor    %r8d,%r8d
  402036:       31 c9                   xor    %ecx,%ecx
  402038:       48 c7 c7 4d 21 40 00    mov    $0x40214d,%rdi
  40203f:       ff 15 7b 3e 00 00       call   *0x3e7b(%rip)        # 405ec0 <__                       libc_start_main@GLIBC_2.34>
  402045:       f4                      hlt
  402046:       66 2e 0f 1f 84 00 00    cs nopw 0x0(%rax,%rax,1)
  40204d:       00 00 00

0000000000402050 <_dl_relocate_static_pie>:
  402050:       f3 0f 1e fa             endbr64
  402054:       c3                      ret
  402055:       66 2e 0f 1f 84 00 00    cs nopw 0x0(%rax,%rax,1)
  40205c:       00 00 00
  40205f:       90                      nop

0000000000402060 <deregister_tm_clones>:
  402060:       b8 18 60 40 00          mov    $0x406018,%eax
  402065:       48 3d 18 60 40 00       cmp    $0x406018,%rax
  40206b:       74 13                   je     402080 <deregister_tm_clones+0x20                       >
  40206d:       b8 00 00 00 00          mov    $0x0,%eax
  402072:       48 85 c0                test   %rax,%rax
  402075:       74 09                   je     402080 <deregister_tm_clones+0x20                       >
  402077:       bf 18 60 40 00          mov    $0x406018,%edi
  40207c:       ff e0                   jmp    *%rax
  40207e:       66 90                   xchg   %ax,%ax
  402080:       c3                      ret
  402081:       66 66 2e 0f 1f 84 00    data16 cs nopw 0x0(%rax,%rax,1)
  402088:       00 00 00 00
  40208c:       0f 1f 40 00             nopl   0x0(%rax)

0000000000402090 <register_tm_clones>:
  402090:       be 18 60 40 00          mov    $0x406018,%esi
  402095:       48 81 ee 18 60 40 00    sub    $0x406018,%rsi
  40209c:       48 89 f0                mov    %rsi,%rax
  40209f:       48 c1 ee 3f             shr    $0x3f,%rsi
  4020a3:       48 c1 f8 03             sar    $0x3,%rax
  4020a7:       48 01 c6                add    %rax,%rsi
  4020aa:       48 d1 fe                sar    %rsi
  4020ad:       74 11                   je     4020c0 <register_tm_clones+0x30>
  4020af:       b8 00 00 00 00          mov    $0x0,%eax
  4020b4:       48 85 c0                test   %rax,%rax
  4020b7:       74 07                   je     4020c0 <register_tm_clones+0x30>
  4020b9:       bf 18 60 40 00          mov    $0x406018,%edi
  4020be:       ff e0                   jmp    *%rax
  4020c0:       c3                      ret
  4020c1:       66 66 2e 0f 1f 84 00    data16 cs nopw 0x0(%rax,%rax,1)
  4020c8:       00 00 00 00
  4020cc:       0f 1f 40 00             nopl   0x0(%rax)

00000000004020d0 <__do_global_dtors_aux>:
  4020d0:       f3 0f 1e fa             endbr64
  4020d4:       80 3d ad 3f 00 00 00    cmpb   $0x0,0x3fad(%rip)        # 406088                        <completed.0>
  4020db:       75 13                   jne    4020f0 <__do_global_dtors_aux+0x2                       0>
  4020dd:       55                      push   %rbp
  4020de:       48 89 e5                mov    %rsp,%rbp
  4020e1:       e8 7a ff ff ff          call   402060 <deregister_tm_clones>
  4020e6:       c6 05 9b 3f 00 00 01    movb   $0x1,0x3f9b(%rip)        # 406088                        <completed.0>
  4020ed:       5d                      pop    %rbp
  4020ee:       c3                      ret
  4020ef:       90                      nop
  4020f0:       c3                      ret
  4020f1:       66 66 2e 0f 1f 84 00    data16 cs nopw 0x0(%rax,%rax,1)
  4020f8:       00 00 00 00
  4020fc:       0f 1f 40 00             nopl   0x0(%rax)

0000000000402100 <frame_dummy>:
  402100:       f3 0f 1e fa             endbr64
  402104:       eb 8a                   jmp    402090 <register_tm_clones>

0000000000402106 <usage>:
  402106:       53                      push   %rbx
  402107:       48 89 fa                mov    %rdi,%rdx
  40210a:       89 f3                   mov    %esi,%ebx
  40210c:       80 3d 01 21 00 00 00    cmpb   $0x0,0x2101(%rip)        # 404214                        <is_checker>
  402113:       74 1f                   je     402134 <usage+0x2e>
  402115:       48 8d 35 ec 1e 00 00    lea    0x1eec(%rip),%rsi        # 404008                        <_IO_stdin_used+0x8>
  40211c:       bf 01 00 00 00          mov    $0x1,%edi
  402121:       b8 00 00 00 00          mov    $0x0,%eax
  402126:       ff 15 5c 3e 00 00       call   *0x3e5c(%rip)        # 405f88 <__                       printf_chk@GLIBC_2.3.4>
  40212c:       89 df                   mov    %ebx,%edi
  40212e:       ff 15 84 3e 00 00       call   *0x3e84(%rip)        # 405fb8 <ex                       it@GLIBC_2.2.5>
  402134:       48 8d 35 95 1f 00 00    lea    0x1f95(%rip),%rsi        # 4040d0                        <_IO_stdin_used+0xd0>
  40213b:       bf 01 00 00 00          mov    $0x1,%edi
  402140:       b8 00 00 00 00          mov    $0x0,%eax
  402145:       ff 15 3d 3e 00 00       call   *0x3e3d(%rip)        # 405f88 <__                       printf_chk@GLIBC_2.3.4>
  40214b:       eb df                   jmp    40212c <usage+0x26>

000000000040214d <main>:
  40214d:       41 57                   push   %r15
  40214f:       41 56                   push   %r14
  402151:       41 55                   push   %r13
  402153:       41 54                   push   %r12
  402155:       55                      push   %rbp
  402156:       53                      push   %rbx
  402157:       48 83 ec 18             sub    $0x18,%rsp
  40215b:       89 fd                   mov    %edi,%ebp
  40215d:       48 89 f3                mov    %rsi,%rbx
  402160:       44 0f b6 35 ac 20 00    movzbl 0x20ac(%rip),%r14d        # 40421                       4 <is_checker>
  402167:       00
  402168:       45 84 f6                test   %r14b,%r14b
  40216b:       74 3d                   je     4021aa <main+0x5d>
  40216d:       4c 8d 2d c8 1f 00 00    lea    0x1fc8(%rip),%r13        # 40413c                        <_IO_stdin_used+0x13c>
  402174:       4c 8b 25 b5 3e 00 00    mov    0x3eb5(%rip),%r12        # 406030                        <stdin@GLIBC_2.2.5>
  40217b:       c7 44 24 0c 05 00 00    movl   $0x5,0xc(%rsp)
  402182:       00
  402183:       4c 89 ea                mov    %r13,%rdx
  402186:       48 89 de                mov    %rbx,%rsi
  402189:       89 ef                   mov    %ebp,%edi
  40218b:       ff 15 17 3e 00 00       call   *0x3e17(%rip)        # 405fa8 <ge                       topt@GLIBC_2.2.5>
  402191:       3c ff                   cmp    $0xff,%al
  402193:       74 48                   je     4021dd <main+0x90>
  402195:       3c 68                   cmp    $0x68,%al
  402197:       74 1a                   je     4021b3 <main+0x66>
  402199:       3c 74                   cmp    $0x74,%al
  40219b:       74 23                   je     4021c0 <main+0x73>
  40219d:       be 01 00 00 00          mov    $0x1,%esi
  4021a2:       48 8b 3b                mov    (%rbx),%rdi
  4021a5:       e8 5c ff ff ff          call   402106 <usage>
  4021aa:       4c 8d 2d 8f 1f 00 00    lea    0x1f8f(%rip),%r13        # 404140                        <_IO_stdin_used+0x140>
  4021b1:       eb c1                   jmp    402174 <main+0x27>
  4021b3:       be 00 00 00 00          mov    $0x0,%esi
  4021b8:       48 8b 3b                mov    (%rbx),%rdi
  4021bb:       e8 46 ff ff ff          call   402106 <usage>
  4021c0:       ba 0a 00 00 00          mov    $0xa,%edx
  4021c5:       be 00 00 00 00          mov    $0x0,%esi
  4021ca:       48 8b 3d 8f 3e 00 00    mov    0x3e8f(%rip),%rdi        # 406060                        <optarg@GLIBC_2.2.5>
  4021d1:       ff 15 d9 3d 00 00       call   *0x3dd9(%rip)        # 405fb0 <st                       rtoul@GLIBC_2.2.5>
  4021d7:       89 44 24 0c             mov    %eax,0xc(%rsp)
  4021db:       eb a6                   jmp    402183 <main+0x36>
  4021dd:       44 8b 2d 54 3e 00 00    mov    0x3e54(%rip),%r13d        # 40603                       8 <optind@GLIBC_2.2.5>
  4021e4:       41 bf 00 00 00 00       mov    $0x0,%r15d
  4021ea:       eb 29                   jmp    402215 <main+0xc8>
  4021ec:       4c 39 25 3d 3e 00 00    cmp    %r12,0x3e3d(%rip)        # 406030                        <stdin@GLIBC_2.2.5>
  4021f3:       75 63                   jne    402258 <main+0x10b>
  4021f5:       49 63 c5                movslq %r13d,%rax
  4021f8:       48 8d 35 61 20 00 00    lea    0x2061(%rip),%rsi        # 404260                        <is_checker+0x4c>
  4021ff:       48 8b 3c c3             mov    (%rbx,%rax,8),%rdi
  402203:       ff 15 8f 3d 00 00       call   *0x3d8f(%rip)        # 405f98 <fo                       pen@GLIBC_2.2.5>
  402209:       49 89 c4                mov    %rax,%r12
  40220c:       48 85 c0                test   %rax,%rax
  40220f:       74 2f                   je     402240 <main+0xf3>
  402211:       41 83 c5 01             add    $0x1,%r13d
  402215:       41 39 ed                cmp    %ebp,%r13d
  402218:       7d 6c                   jge    402286 <main+0x139>
  40221a:       45 84 f6                test   %r14b,%r14b
  40221d:       74 cd                   je     4021ec <main+0x9f>
  40221f:       45 85 ff                test   %r15d,%r15d
  402222:       75 c8                   jne    4021ec <main+0x9f>
  402224:       49 63 c5                movslq %r13d,%rax
  402227:       48 8b 3c c3             mov    (%rbx,%rax,8),%rdi
  40222b:       ba 0a 00 00 00          mov    $0xa,%edx
  402230:       be 00 00 00 00          mov    $0x0,%esi
  402235:       ff 15 05 3d 00 00       call   *0x3d05(%rip)        # 405f40 <st                       rtol@GLIBC_2.2.5>
  40223b:       41 89 c7                mov    %eax,%r15d
  40223e:       eb d1                   jmp    402211 <main+0xc4>
  402240:       48 8b 3d 19 3e 00 00    mov    0x3e19(%rip),%rdi        # 406060                        <optarg@GLIBC_2.2.5>
  402247:       ff 15 53 3d 00 00       call   *0x3d53(%rip)        # 405fa0 <pe                       rror@GLIBC_2.2.5>
  40224d:       bf 01 00 00 00          mov    $0x1,%edi
  402252:       ff 15 60 3d 00 00       call   *0x3d60(%rip)        # 405fb8 <ex                       it@GLIBC_2.2.5>
  402258:       48 8b 0b                mov    (%rbx),%rcx
  40225b:       48 8d 15 e0 1e 00 00    lea    0x1ee0(%rip),%rdx        # 404142                        <_IO_stdin_used+0x142>
  402262:       be 01 00 00 00          mov    $0x1,%esi
  402267:       48 8b 3d 12 3e 00 00    mov    0x3e12(%rip),%rdi        # 406080                        <stderr@GLIBC_2.2.5>
  40226e:       b8 00 00 00 00          mov    $0x0,%eax
  402273:       ff 15 4f 3d 00 00       call   *0x3d4f(%rip)        # 405fc8 <__                       fprintf_chk@GLIBC_2.3.4>
  402279:       be 01 00 00 00          mov    $0x1,%esi
  40227e:       48 8b 3b                mov    (%rbx),%rdi
  402281:       e8 80 fe ff ff          call   402106 <usage>
  402286:       8b 74 24 0c             mov    0xc(%rsp),%esi
  40228a:       44 89 ff                mov    %r15d,%edi
  40228d:       67 e8 a3 0d 00 00       addr32 call 403036 <initialize_target>
  402293:       48 89 c6                mov    %rax,%rsi
  402296:       80 3d c3 1e 00 00 63    cmpb   $0x63,0x1ec3(%rip)        # 40416                       0 <target_prefix>
  40229d:       40 0f 94 c7             sete   %dil
  4022a1:       40 0f b6 ff             movzbl %dil,%edi
  4022a5:       4c 89 e2                mov    %r12,%rdx
  4022a8:       67 e8 71 11 00 00       addr32 call 40341f <launch>

00000000004022ae <scramble>:
  4022ae:       48 83 ec 38             sub    $0x38,%rsp
  4022b2:       64 48 8b 04 25 28 00    mov    %fs:0x28,%rax
  4022b9:       00 00
  4022bb:       48 89 44 24 28          mov    %rax,0x28(%rsp)
  4022c0:       31 c0                   xor    %eax,%eax
  4022c2:       eb 10                   jmp    4022d4 <scramble+0x26>
  4022c4:       69 d0 5b 01 00 00       imul   $0x15b,%eax,%edx
  4022ca:       01 fa                   add    %edi,%edx
  4022cc:       89 c1                   mov    %eax,%ecx
  4022ce:       89 14 8c                mov    %edx,(%rsp,%rcx,4)
  4022d1:       83 c0 01                add    $0x1,%eax
  4022d4:       83 f8 09                cmp    $0x9,%eax
  4022d7:       76 eb                   jbe    4022c4 <scramble+0x16>
  4022d9:       8b 44 24 24             mov    0x24(%rsp),%eax
  4022dd:       69 c0 2f 50 00 00       imul   $0x502f,%eax,%eax
  4022e3:       89 44 24 24             mov    %eax,0x24(%rsp)
  4022e7:       8b 44 24 08             mov    0x8(%rsp),%eax
  4022eb:       69 c0 95 26 00 00       imul   $0x2695,%eax,%eax
  4022f1:       89 44 24 08             mov    %eax,0x8(%rsp)
  4022f5:       8b 04 24                mov    (%rsp),%eax
  4022f8:       69 c0 9f 7c 00 00       imul   $0x7c9f,%eax,%eax
  4022fe:       89 04 24                mov    %eax,(%rsp)
  402301:       8b 44 24 24             mov    0x24(%rsp),%eax
  402305:       69 c0 15 08 00 00       imul   $0x815,%eax,%eax
  40230b:       89 44 24 24             mov    %eax,0x24(%rsp)
  40230f:       8b 44 24 1c             mov    0x1c(%rsp),%eax
  402313:       69 c0 ef 06 00 00       imul   $0x6ef,%eax,%eax
  402319:       89 44 24 1c             mov    %eax,0x1c(%rsp)
  40231d:       8b 44 24 24             mov    0x24(%rsp),%eax
  402321:       69 c0 7f bd 00 00       imul   $0xbd7f,%eax,%eax
  402327:       89 44 24 24             mov    %eax,0x24(%rsp)
  40232b:       8b 44 24 20             mov    0x20(%rsp),%eax
  40232f:       69 c0 ec 65 00 00       imul   $0x65ec,%eax,%eax
  402335:       89 44 24 20             mov    %eax,0x20(%rsp)
  402339:       8b 44 24 0c             mov    0xc(%rsp),%eax
  40233d:       69 c0 9d 88 00 00       imul   $0x889d,%eax,%eax
  402343:       89 44 24 0c             mov    %eax,0xc(%rsp)
  402347:       8b 44 24 24             mov    0x24(%rsp),%eax
  40234b:       69 c0 c6 35 00 00       imul   $0x35c6,%eax,%eax
  402351:       89 44 24 24             mov    %eax,0x24(%rsp)
  402355:       8b 04 24                mov    (%rsp),%eax
  402358:       69 c0 21 ed 00 00       imul   $0xed21,%eax,%eax
  40235e:       89 04 24                mov    %eax,(%rsp)
  402361:       8b 44 24 10             mov    0x10(%rsp),%eax
  402365:       69 c0 b0 75 00 00       imul   $0x75b0,%eax,%eax
  40236b:       89 44 24 10             mov    %eax,0x10(%rsp)
  40236f:       8b 04 24                mov    (%rsp),%eax
  402372:       69 c0 91 8e 00 00       imul   $0x8e91,%eax,%eax
  402378:       89 04 24                mov    %eax,(%rsp)
  40237b:       8b 04 24                mov    (%rsp),%eax
  40237e:       69 c0 64 c8 00 00       imul   $0xc864,%eax,%eax
  402384:       89 04 24                mov    %eax,(%rsp)
  402387:       8b 04 24                mov    (%rsp),%eax
  40238a:       69 c0 78 f6 00 00       imul   $0xf678,%eax,%eax
  402390:       89 04 24                mov    %eax,(%rsp)
  402393:       8b 44 24 10             mov    0x10(%rsp),%eax
  402397:       69 c0 a5 c2 00 00       imul   $0xc2a5,%eax,%eax
  40239d:       89 44 24 10             mov    %eax,0x10(%rsp)
  4023a1:       8b 44 24 14             mov    0x14(%rsp),%eax
  4023a5:       69 c0 3b c2 00 00       imul   $0xc23b,%eax,%eax
  4023ab:       89 44 24 14             mov    %eax,0x14(%rsp)
  4023af:       8b 44 24 18             mov    0x18(%rsp),%eax
  4023b3:       69 c0 a7 e2 00 00       imul   $0xe2a7,%eax,%eax
  4023b9:       89 44 24 18             mov    %eax,0x18(%rsp)
  4023bd:       8b 44 24 04             mov    0x4(%rsp),%eax
  4023c1:       69 c0 07 65 00 00       imul   $0x6507,%eax,%eax
  4023c7:       89 44 24 04             mov    %eax,0x4(%rsp)
  4023cb:       8b 44 24 20             mov    0x20(%rsp),%eax
  4023cf:       69 c0 d4 b9 00 00       imul   $0xb9d4,%eax,%eax
  4023d5:       89 44 24 20             mov    %eax,0x20(%rsp)
  4023d9:       8b 44 24 14             mov    0x14(%rsp),%eax
  4023dd:       69 c0 48 9b 00 00       imul   $0x9b48,%eax,%eax
  4023e3:       89 44 24 14             mov    %eax,0x14(%rsp)
  4023e7:       8b 44 24 14             mov    0x14(%rsp),%eax
  4023eb:       69 c0 bb c8 00 00       imul   $0xc8bb,%eax,%eax
  4023f1:       89 44 24 14             mov    %eax,0x14(%rsp)
  4023f5:       8b 44 24 1c             mov    0x1c(%rsp),%eax
  4023f9:       69 c0 d2 bb 00 00       imul   $0xbbd2,%eax,%eax
  4023ff:       89 44 24 1c             mov    %eax,0x1c(%rsp)
  402403:       8b 44 24 0c             mov    0xc(%rsp),%eax
  402407:       69 c0 a6 3a 00 00       imul   $0x3aa6,%eax,%eax
  40240d:       89 44 24 0c             mov    %eax,0xc(%rsp)
  402411:       8b 44 24 08             mov    0x8(%rsp),%eax
  402415:       69 c0 81 02 00 00       imul   $0x281,%eax,%eax
  40241b:       89 44 24 08             mov    %eax,0x8(%rsp)
  40241f:       8b 44 24 10             mov    0x10(%rsp),%eax
  402423:       69 c0 32 45 00 00       imul   $0x4532,%eax,%eax
  402429:       89 44 24 10             mov    %eax,0x10(%rsp)
  40242d:       8b 44 24 10             mov    0x10(%rsp),%eax
  402431:       69 c0 00 7f 00 00       imul   $0x7f00,%eax,%eax
  402437:       89 44 24 10             mov    %eax,0x10(%rsp)
  40243b:       8b 44 24 24             mov    0x24(%rsp),%eax
  40243f:       69 c0 52 53 00 00       imul   $0x5352,%eax,%eax
  402445:       89 44 24 24             mov    %eax,0x24(%rsp)
  402449:       8b 44 24 1c             mov    0x1c(%rsp),%eax
  40244d:       69 c0 c4 e2 00 00       imul   $0xe2c4,%eax,%eax
  402453:       89 44 24 1c             mov    %eax,0x1c(%rsp)
  402457:       8b 44 24 24             mov    0x24(%rsp),%eax
  40245b:       69 c0 fc 0a 00 00       imul   $0xafc,%eax,%eax
  402461:       89 44 24 24             mov    %eax,0x24(%rsp)
  402465:       8b 44 24 24             mov    0x24(%rsp),%eax
  402469:       69 c0 97 dc 00 00       imul   $0xdc97,%eax,%eax
  40246f:       89 44 24 24             mov    %eax,0x24(%rsp)
  402473:       8b 44 24 10             mov    0x10(%rsp),%eax
  402477:       69 c0 45 be 00 00       imul   $0xbe45,%eax,%eax
  40247d:       89 44 24 10             mov    %eax,0x10(%rsp)
  402481:       8b 44 24 18             mov    0x18(%rsp),%eax
  402485:       69 c0 76 e0 00 00       imul   $0xe076,%eax,%eax
  40248b:       89 44 24 18             mov    %eax,0x18(%rsp)
  40248f:       8b 44 24 14             mov    0x14(%rsp),%eax
  402493:       69 c0 a2 87 00 00       imul   $0x87a2,%eax,%eax
  402499:       89 44 24 14             mov    %eax,0x14(%rsp)
  40249d:       8b 44 24 20             mov    0x20(%rsp),%eax
  4024a1:       6b c0 33                imul   $0x33,%eax,%eax
  4024a4:       89 44 24 20             mov    %eax,0x20(%rsp)
  4024a8:       8b 44 24 04             mov    0x4(%rsp),%eax
  4024ac:       69 c0 99 b2 00 00       imul   $0xb299,%eax,%eax
  4024b2:       89 44 24 04             mov    %eax,0x4(%rsp)
  4024b6:       8b 04 24                mov    (%rsp),%eax
  4024b9:       69 c0 39 02 00 00       imul   $0x239,%eax,%eax
  4024bf:       89 04 24                mov    %eax,(%rsp)
  4024c2:       8b 44 24 24             mov    0x24(%rsp),%eax
  4024c6:       69 c0 43 f4 00 00       imul   $0xf443,%eax,%eax
  4024cc:       89 44 24 24             mov    %eax,0x24(%rsp)
  4024d0:       8b 44 24 14             mov    0x14(%rsp),%eax
  4024d4:       69 c0 fc a9 00 00       imul   $0xa9fc,%eax,%eax
  4024da:       89 44 24 14             mov    %eax,0x14(%rsp)
  4024de:       8b 44 24 04             mov    0x4(%rsp),%eax
  4024e2:       69 c0 7a 02 00 00       imul   $0x27a,%eax,%eax
  4024e8:       89 44 24 04             mov    %eax,0x4(%rsp)
  4024ec:       8b 44 24 18             mov    0x18(%rsp),%eax
  4024f0:       69 c0 55 9f 00 00       imul   $0x9f55,%eax,%eax
  4024f6:       89 44 24 18             mov    %eax,0x18(%rsp)
  4024fa:       8b 44 24 04             mov    0x4(%rsp),%eax
  4024fe:       69 c0 1f 9c 00 00       imul   $0x9c1f,%eax,%eax
  402504:       89 44 24 04             mov    %eax,0x4(%rsp)
  402508:       8b 44 24 0c             mov    0xc(%rsp),%eax
  40250c:       69 c0 8f 02 00 00       imul   $0x28f,%eax,%eax
  402512:       89 44 24 0c             mov    %eax,0xc(%rsp)
  402516:       8b 44 24 1c             mov    0x1c(%rsp),%eax
  40251a:       69 c0 e6 2b 00 00       imul   $0x2be6,%eax,%eax
  402520:       89 44 24 1c             mov    %eax,0x1c(%rsp)
  402524:       8b 44 24 10             mov    0x10(%rsp),%eax
  402528:       69 c0 28 0b 00 00       imul   $0xb28,%eax,%eax
  40252e:       89 44 24 10             mov    %eax,0x10(%rsp)
  402532:       8b 44 24 0c             mov    0xc(%rsp),%eax
  402536:       69 c0 90 be 00 00       imul   $0xbe90,%eax,%eax
  40253c:       89 44 24 0c             mov    %eax,0xc(%rsp)
  402540:       8b 44 24 04             mov    0x4(%rsp),%eax
  402544:       69 c0 84 04 00 00       imul   $0x484,%eax,%eax
  40254a:       89 44 24 04             mov    %eax,0x4(%rsp)
  40254e:       8b 44 24 08             mov    0x8(%rsp),%eax
  402552:       69 c0 91 86 00 00       imul   $0x8691,%eax,%eax
  402558:       89 44 24 08             mov    %eax,0x8(%rsp)
  40255c:       8b 44 24 04             mov    0x4(%rsp),%eax
  402560:       69 c0 c2 1d 00 00       imul   $0x1dc2,%eax,%eax
  402566:       89 44 24 04             mov    %eax,0x4(%rsp)
  40256a:       8b 44 24 04             mov    0x4(%rsp),%eax
  40256e:       69 c0 78 2a 00 00       imul   $0x2a78,%eax,%eax
  402574:       89 44 24 04             mov    %eax,0x4(%rsp)
  402578:       8b 44 24 0c             mov    0xc(%rsp),%eax
  40257c:       69 c0 a9 4f 00 00       imul   $0x4fa9,%eax,%eax
  402582:       89 44 24 0c             mov    %eax,0xc(%rsp)
  402586:       8b 44 24 10             mov    0x10(%rsp),%eax
  40258a:       69 c0 71 b9 00 00       imul   $0xb971,%eax,%eax
  402590:       89 44 24 10             mov    %eax,0x10(%rsp)
  402594:       8b 44 24 10             mov    0x10(%rsp),%eax
  402598:       69 c0 66 58 00 00       imul   $0x5866,%eax,%eax
  40259e:       89 44 24 10             mov    %eax,0x10(%rsp)
  4025a2:       8b 44 24 10             mov    0x10(%rsp),%eax
  4025a6:       69 c0 ed 0f 00 00       imul   $0xfed,%eax,%eax
  4025ac:       89 44 24 10             mov    %eax,0x10(%rsp)
  4025b0:       8b 44 24 1c             mov    0x1c(%rsp),%eax
  4025b4:       69 c0 9d dc 00 00       imul   $0xdc9d,%eax,%eax
  4025ba:       89 44 24 1c             mov    %eax,0x1c(%rsp)
  4025be:       8b 44 24 20             mov    0x20(%rsp),%eax
  4025c2:       69 c0 df ae 00 00       imul   $0xaedf,%eax,%eax
  4025c8:       89 44 24 20             mov    %eax,0x20(%rsp)
  4025cc:       8b 44 24 08             mov    0x8(%rsp),%eax
  4025d0:       69 c0 14 5a 00 00       imul   $0x5a14,%eax,%eax
  4025d6:       89 44 24 08             mov    %eax,0x8(%rsp)
  4025da:       8b 44 24 24             mov    0x24(%rsp),%eax
  4025de:       69 c0 47 9a 00 00       imul   $0x9a47,%eax,%eax
  4025e4:       89 44 24 24             mov    %eax,0x24(%rsp)
  4025e8:       8b 44 24 0c             mov    0xc(%rsp),%eax
  4025ec:       69 c0 6f 3a 00 00       imul   $0x3a6f,%eax,%eax
  4025f2:       89 44 24 0c             mov    %eax,0xc(%rsp)
  4025f6:       8b 44 24 08             mov    0x8(%rsp),%eax
  4025fa:       69 c0 f6 41 00 00       imul   $0x41f6,%eax,%eax
  402600:       89 44 24 08             mov    %eax,0x8(%rsp)
  402604:       8b 44 24 1c             mov    0x1c(%rsp),%eax
  402608:       69 c0 10 fd 00 00       imul   $0xfd10,%eax,%eax
  40260e:       89 44 24 1c             mov    %eax,0x1c(%rsp)
  402612:       8b 44 24 20             mov    0x20(%rsp),%eax
  402616:       69 c0 57 2d 00 00       imul   $0x2d57,%eax,%eax
  40261c:       89 44 24 20             mov    %eax,0x20(%rsp)
  402620:       8b 44 24 14             mov    0x14(%rsp),%eax
  402624:       69 c0 5c 7d 00 00       imul   $0x7d5c,%eax,%eax
  40262a:       89 44 24 14             mov    %eax,0x14(%rsp)
  40262e:       8b 44 24 08             mov    0x8(%rsp),%eax
  402632:       69 c0 8e e6 00 00       imul   $0xe68e,%eax,%eax
  402638:       89 44 24 08             mov    %eax,0x8(%rsp)
  40263c:       8b 04 24                mov    (%rsp),%eax
  40263f:       69 c0 1c c2 00 00       imul   $0xc21c,%eax,%eax
  402645:       89 04 24                mov    %eax,(%rsp)
  402648:       8b 44 24 18             mov    0x18(%rsp),%eax
  40264c:       69 c0 14 b9 00 00       imul   $0xb914,%eax,%eax
  402652:       89 44 24 18             mov    %eax,0x18(%rsp)
  402656:       8b 44 24 24             mov    0x24(%rsp),%eax
  40265a:       69 c0 18 ee 00 00       imul   $0xee18,%eax,%eax
  402660:       89 44 24 24             mov    %eax,0x24(%rsp)
  402664:       8b 44 24 20             mov    0x20(%rsp),%eax
  402668:       69 c0 a8 63 00 00       imul   $0x63a8,%eax,%eax
  40266e:       89 44 24 20             mov    %eax,0x20(%rsp)
  402672:       8b 44 24 18             mov    0x18(%rsp),%eax
  402676:       69 c0 39 20 00 00       imul   $0x2039,%eax,%eax
  40267c:       89 44 24 18             mov    %eax,0x18(%rsp)
  402680:       8b 44 24 10             mov    0x10(%rsp),%eax
  402684:       69 c0 e0 48 00 00       imul   $0x48e0,%eax,%eax
  40268a:       89 44 24 10             mov    %eax,0x10(%rsp)
  40268e:       8b 44 24 04             mov    0x4(%rsp),%eax
  402692:       69 c0 fd 85 00 00       imul   $0x85fd,%eax,%eax
  402698:       89 44 24 04             mov    %eax,0x4(%rsp)
  40269c:       8b 44 24 0c             mov    0xc(%rsp),%eax
  4026a0:       69 c0 c8 78 00 00       imul   $0x78c8,%eax,%eax
  4026a6:       89 44 24 0c             mov    %eax,0xc(%rsp)
  4026aa:       8b 44 24 14             mov    0x14(%rsp),%eax
  4026ae:       69 c0 bd 42 00 00       imul   $0x42bd,%eax,%eax
  4026b4:       89 44 24 14             mov    %eax,0x14(%rsp)
  4026b8:       8b 04 24                mov    (%rsp),%eax
  4026bb:       69 c0 b4 3c 00 00       imul   $0x3cb4,%eax,%eax
  4026c1:       89 04 24                mov    %eax,(%rsp)
  4026c4:       8b 44 24 0c             mov    0xc(%rsp),%eax
  4026c8:       69 c0 3c d9 00 00       imul   $0xd93c,%eax,%eax
  4026ce:       89 44 24 0c             mov    %eax,0xc(%rsp)
  4026d2:       8b 44 24 08             mov    0x8(%rsp),%eax
  4026d6:       69 c0 c4 c2 00 00       imul   $0xc2c4,%eax,%eax
  4026dc:       89 44 24 08             mov    %eax,0x8(%rsp)
  4026e0:       8b 44 24 20             mov    0x20(%rsp),%eax
  4026e4:       69 c0 32 7f 00 00       imul   $0x7f32,%eax,%eax
  4026ea:       89 44 24 20             mov    %eax,0x20(%rsp)
  4026ee:       8b 44 24 08             mov    0x8(%rsp),%eax
  4026f2:       69 c0 e0 d7 00 00       imul   $0xd7e0,%eax,%eax
  4026f8:       89 44 24 08             mov    %eax,0x8(%rsp)
  4026fc:       8b 44 24 0c             mov    0xc(%rsp),%eax
  402700:       69 c0 05 a4 00 00       imul   $0xa405,%eax,%eax
  402706:       89 44 24 0c             mov    %eax,0xc(%rsp)
  40270a:       8b 44 24 04             mov    0x4(%rsp),%eax
  40270e:       69 c0 ad 97 00 00       imul   $0x97ad,%eax,%eax
  402714:       89 44 24 04             mov    %eax,0x4(%rsp)
  402718:       8b 44 24 04             mov    0x4(%rsp),%eax
  40271c:       69 c0 75 cf 00 00       imul   $0xcf75,%eax,%eax
  402722:       89 44 24 04             mov    %eax,0x4(%rsp)
  402726:       8b 44 24 1c             mov    0x1c(%rsp),%eax
  40272a:       69 c0 e7 77 00 00       imul   $0x77e7,%eax,%eax
  402730:       89 44 24 1c             mov    %eax,0x1c(%rsp)
  402734:       8b 44 24 08             mov    0x8(%rsp),%eax
  402738:       69 c0 46 c3 00 00       imul   $0xc346,%eax,%eax
  40273e:       89 44 24 08             mov    %eax,0x8(%rsp)
  402742:       8b 44 24 14             mov    0x14(%rsp),%eax
  402746:       69 c0 0b 04 00 00       imul   $0x40b,%eax,%eax
  40274c:       89 44 24 14             mov    %eax,0x14(%rsp)
  402750:       8b 44 24 04             mov    0x4(%rsp),%eax
  402754:       69 c0 26 4f 00 00       imul   $0x4f26,%eax,%eax
  40275a:       89 44 24 04             mov    %eax,0x4(%rsp)
  40275e:       8b 44 24 14             mov    0x14(%rsp),%eax
  402762:       69 c0 55 e0 00 00       imul   $0xe055,%eax,%eax
  402768:       89 44 24 14             mov    %eax,0x14(%rsp)
  40276c:       8b 44 24 14             mov    0x14(%rsp),%eax
  402770:       69 c0 aa 44 00 00       imul   $0x44aa,%eax,%eax
  402776:       89 44 24 14             mov    %eax,0x14(%rsp)
  40277a:       8b 44 24 1c             mov    0x1c(%rsp),%eax
  40277e:       69 c0 35 b5 00 00       imul   $0xb535,%eax,%eax
  402784:       89 44 24 1c             mov    %eax,0x1c(%rsp)
  402788:       8b 44 24 14             mov    0x14(%rsp),%eax
  40278c:       69 c0 2c 6c 00 00       imul   $0x6c2c,%eax,%eax
  402792:       89 44 24 14             mov    %eax,0x14(%rsp)
  402796:       8b 44 24 10             mov    0x10(%rsp),%eax
  40279a:       69 c0 94 04 00 00       imul   $0x494,%eax,%eax
  4027a0:       89 44 24 10             mov    %eax,0x10(%rsp)
  4027a4:       8b 44 24 08             mov    0x8(%rsp),%eax
  4027a8:       69 c0 94 70 00 00       imul   $0x7094,%eax,%eax
  4027ae:       89 44 24 08             mov    %eax,0x8(%rsp)
  4027b2:       8b 44 24 08             mov    0x8(%rsp),%eax
  4027b6:       69 c0 b5 1b 00 00       imul   $0x1bb5,%eax,%eax
  4027bc:       89 44 24 08             mov    %eax,0x8(%rsp)
  4027c0:       8b 44 24 04             mov    0x4(%rsp),%eax
  4027c4:       69 c0 74 b7 00 00       imul   $0xb774,%eax,%eax
  4027ca:       89 44 24 04             mov    %eax,0x4(%rsp)
  4027ce:       8b 44 24 1c             mov    0x1c(%rsp),%eax
  4027d2:       69 c0 55 ec 00 00       imul   $0xec55,%eax,%eax
  4027d8:       89 44 24 1c             mov    %eax,0x1c(%rsp)
  4027dc:       8b 44 24 10             mov    0x10(%rsp),%eax
  4027e0:       69 c0 04 b2 00 00       imul   $0xb204,%eax,%eax
  4027e6:       89 44 24 10             mov    %eax,0x10(%rsp)
  4027ea:       8b 04 24                mov    (%rsp),%eax
  4027ed:       69 c0 9b c1 00 00       imul   $0xc19b,%eax,%eax
  4027f3:       89 04 24                mov    %eax,(%rsp)
  4027f6:       8b 04 24                mov    (%rsp),%eax
  4027f9:       69 c0 c3 d4 00 00       imul   $0xd4c3,%eax,%eax
  4027ff:       89 04 24                mov    %eax,(%rsp)
  402802:       8b 44 24 14             mov    0x14(%rsp),%eax
  402806:       69 c0 07 3f 00 00       imul   $0x3f07,%eax,%eax
  40280c:       89 44 24 14             mov    %eax,0x14(%rsp)
  402810:       8b 44 24 1c             mov    0x1c(%rsp),%eax
  402814:       69 c0 12 15 00 00       imul   $0x1512,%eax,%eax
  40281a:       89 44 24 1c             mov    %eax,0x1c(%rsp)
  40281e:       8b 44 24 10             mov    0x10(%rsp),%eax
  402822:       69 c0 88 7b 00 00       imul   $0x7b88,%eax,%eax
  402828:       89 44 24 10             mov    %eax,0x10(%rsp)
  40282c:       8b 44 24 0c             mov    0xc(%rsp),%eax
  402830:       69 c0 fe 8f 00 00       imul   $0x8ffe,%eax,%eax
  402836:       89 44 24 0c             mov    %eax,0xc(%rsp)
  40283a:       b8 00 00 00 00          mov    $0x0,%eax
  40283f:       ba 00 00 00 00          mov    $0x0,%edx
  402844:       eb 0a                   jmp    402850 <scramble+0x5a2>
  402846:       89 c1                   mov    %eax,%ecx
  402848:       8b 0c 8c                mov    (%rsp,%rcx,4),%ecx
  40284b:       01 ca                   add    %ecx,%edx
  40284d:       83 c0 01                add    $0x1,%eax
  402850:       83 f8 09                cmp    $0x9,%eax
  402853:       76 f1                   jbe    402846 <scramble+0x598>
  402855:       48 8b 44 24 28          mov    0x28(%rsp),%rax
  40285a:       64 48 2b 04 25 28 00    sub    %fs:0x28,%rax
  402861:       00 00
  402863:       75 07                   jne    40286c <scramble+0x5be>
  402865:       89 d0                   mov    %edx,%eax
  402867:       48 83 c4 38             add    $0x38,%rsp
  40286b:       c3                      ret
  40286c:       ff 15 8e 36 00 00       call   *0x368e(%rip)        # 405f00 <__                       stack_chk_fail@GLIBC_2.4>

0000000000402872 <decode_line>:
  402872:       55                      push   %rbp
  402873:       53                      push   %rbx
  402874:       48 83 ec 18             sub    $0x18,%rsp
  402878:       48 89 fd                mov    %rdi,%rbp
  40287b:       48 89 e3                mov    %rsp,%rbx
  40287e:       eb 06                   jmp    402886 <decode_line+0x14>
  402880:       88 03                   mov    %al,(%rbx)
  402882:       48 8d 5b 01             lea    0x1(%rbx),%rbx
  402886:       48 89 ef                mov    %rbp,%rdi
  402889:       67 e8 4a 0b 00 00       addr32 call 4033d9 <get_hex_byte>
  40288f:       83 f8 ff                cmp    $0xffffffff,%eax
  402892:       74 05                   je     402899 <decode_line+0x27>
  402894:       83 f8 0a                cmp    $0xa,%eax
  402897:       75 e7                   jne    402880 <decode_line+0xe>
  402899:       c6 03 00                movb   $0x0,(%rbx)
  40289c:       48 89 e7                mov    %rsp,%rdi
  40289f:       67 e8 a7 0a 00 00       addr32 call 40334c <print_line>
  4028a5:       48 83 c4 18             add    $0x18,%rsp
  4028a9:       5b                      pop    %rbx
  4028aa:       5d                      pop    %rbp
  4028ab:       c3                      ret

00000000004028ac <hexmatch>:
  4028ac:       55                      push   %rbp
  4028ad:       53                      push   %rbx
  4028ae:       48 83 ec 18             sub    $0x18,%rsp
  4028b2:       89 fb                   mov    %edi,%ebx
  4028b4:       48 89 f5                mov    %rsi,%rbp
  4028b7:       64 48 8b 04 25 28 00    mov    %fs:0x28,%rax
  4028be:       00 00
  4028c0:       48 89 44 24 08          mov    %rax,0x8(%rsp)
  4028c5:       31 c0                   xor    %eax,%eax
  4028c7:       48 89 e6                mov    %rsp,%rsi
  4028ca:       ba 10 00 00 00          mov    $0x10,%edx
  4028cf:       48 89 ef                mov    %rbp,%rdi
  4028d2:       ff 15 d8 36 00 00       call   *0x36d8(%rip)        # 405fb0 <st                       rtoul@GLIBC_2.2.5>
  4028d8:       89 db                   mov    %ebx,%ebx
  4028da:       48 39 c3                cmp    %rax,%rbx
  4028dd:       74 1c                   je     4028fb <hexmatch+0x4f>
  4028df:       b8 00 00 00 00          mov    $0x0,%eax
  4028e4:       48 8b 54 24 08          mov    0x8(%rsp),%rdx
  4028e9:       64 48 2b 14 25 28 00    sub    %fs:0x28,%rdx
  4028f0:       00 00
  4028f2:       75 2a                   jne    40291e <hexmatch+0x72>
  4028f4:       48 83 c4 18             add    $0x18,%rsp
  4028f8:       5b                      pop    %rbx
  4028f9:       5d                      pop    %rbp
  4028fa:       c3                      ret
  4028fb:       48 8b 04 24             mov    (%rsp),%rax
  4028ff:       48 39 e8                cmp    %rbp,%rax
  402902:       74 0c                   je     402910 <hexmatch+0x64>
  402904:       80 38 00                cmpb   $0x0,(%rax)
  402907:       74 0e                   je     402917 <hexmatch+0x6b>
  402909:       b8 00 00 00 00          mov    $0x0,%eax
  40290e:       eb d4                   jmp    4028e4 <hexmatch+0x38>
  402910:       b8 00 00 00 00          mov    $0x0,%eax
  402915:       eb cd                   jmp    4028e4 <hexmatch+0x38>
  402917:       b8 01 00 00 00          mov    $0x1,%eax
  40291c:       eb c6                   jmp    4028e4 <hexmatch+0x38>
  40291e:       ff 15 dc 35 00 00       call   *0x35dc(%rip)        # 405f00 <__                       stack_chk_fail@GLIBC_2.4>

0000000000402924 <report_touch3>:
  402924:       53                      push   %rbx
  402925:       48 89 fa                mov    %rdi,%rdx
  402928:       48 89 f3                mov    %rsi,%rbx
  40292b:       48 8d 35 43 18 00 00    lea    0x1843(%rip),%rsi        # 404175                        <target_prefix+0x15>
  402932:       bf 01 00 00 00          mov    $0x1,%edi
  402937:       b8 00 00 00 00          mov    $0x0,%eax
  40293c:       ff 15 46 36 00 00       call   *0x3646(%rip)        # 405f88 <__                       printf_chk@GLIBC_2.3.4>
  402942:       eb 1f                   jmp    402963 <report_touch3+0x3f>
  402944:       40 0f b6 d7             movzbl %dil,%edx
  402948:       48 8d 35 3e 18 00 00    lea    0x183e(%rip),%rsi        # 40418d                        <target_prefix+0x2d>
  40294f:       bf 01 00 00 00          mov    $0x1,%edi
  402954:       b8 00 00 00 00          mov    $0x0,%eax
  402959:       ff 15 29 36 00 00       call   *0x3629(%rip)        # 405f88 <__                       printf_chk@GLIBC_2.3.4>
  40295f:       48 83 c3 01             add    $0x1,%rbx
  402963:       0f b6 3b                movzbl (%rbx),%edi
  402966:       40 84 ff                test   %dil,%dil
  402969:       74 72                   je     4029dd <report_touch3+0xb9>
  40296b:       8d 47 e0                lea    -0x20(%rdi),%eax
  40296e:       3c 5e                   cmp    $0x5e,%al
  402970:       77 d2                   ja     402944 <report_touch3+0x20>
  402972:       40 80 ff 5c             cmp    $0x5c,%dil
  402976:       74 19                   je     402991 <report_touch3+0x6d>
  402978:       40 80 ff 22             cmp    $0x22,%dil
  40297c:       74 39                   je     4029b7 <report_touch3+0x93>
  40297e:       40 0f b6 ff             movzbl %dil,%edi
  402982:       48 8b 35 97 36 00 00    mov    0x3697(%rip),%rsi        # 406020                        <stdout@GLIBC_2.2.5>
  402989:       ff 15 99 35 00 00       call   *0x3599(%rip)        # 405f28 <pu                       tc@GLIBC_2.2.5>
  40298f:       eb ce                   jmp    40295f <report_touch3+0x3b>
  402991:       48 8b 35 88 36 00 00    mov    0x3688(%rip),%rsi        # 406020                        <stdout@GLIBC_2.2.5>
  402998:       bf 5c 00 00 00          mov    $0x5c,%edi
  40299d:       ff 15 85 35 00 00       call   *0x3585(%rip)        # 405f28 <pu                       tc@GLIBC_2.2.5>
  4029a3:       48 8b 35 76 36 00 00    mov    0x3676(%rip),%rsi        # 406020                        <stdout@GLIBC_2.2.5>
  4029aa:       bf 5c 00 00 00          mov    $0x5c,%edi
  4029af:       ff 15 73 35 00 00       call   *0x3573(%rip)        # 405f28 <pu                       tc@GLIBC_2.2.5>
  4029b5:       eb a8                   jmp    40295f <report_touch3+0x3b>
  4029b7:       48 8b 35 62 36 00 00    mov    0x3662(%rip),%rsi        # 406020                        <stdout@GLIBC_2.2.5>
  4029be:       bf 5c 00 00 00          mov    $0x5c,%edi
  4029c3:       ff 15 5f 35 00 00       call   *0x355f(%rip)        # 405f28 <pu                       tc@GLIBC_2.2.5>
  4029c9:       48 8b 35 50 36 00 00    mov    0x3650(%rip),%rsi        # 406020                        <stdout@GLIBC_2.2.5>
  4029d0:       bf 22 00 00 00          mov    $0x22,%edi
  4029d5:       ff 15 4d 35 00 00       call   *0x354d(%rip)        # 405f28 <pu                       tc@GLIBC_2.2.5>
  4029db:       eb 82                   jmp    40295f <report_touch3+0x3b>
  4029dd:       48 8d 3d b0 17 00 00    lea    0x17b0(%rip),%rdi        # 404194                        <target_prefix+0x34>
  4029e4:       ff 15 f6 34 00 00       call   *0x34f6(%rip)        # 405ee0 <pu                       ts@GLIBC_2.2.5>
  4029ea:       5b                      pop    %rbx
  4029eb:       c3                      ret

00000000004029ec <touch1>:
  4029ec:       55                      push   %rbp
  4029ed:       48 89 e5                mov    %rsp,%rbp
  4029f0:       48 83 e4 f0             and    $0xfffffffffffffff0,%rsp
  4029f4:       c7 05 9e 36 00 00 01    movl   $0x1,0x369e(%rip)        # 40609c                        <vlevel>
  4029fb:       00 00 00
  4029fe:       48 8d 3d 92 17 00 00    lea    0x1792(%rip),%rdi        # 404197                        <target_prefix+0x37>
  402a05:       ff 15 d5 34 00 00       call   *0x34d5(%rip)        # 405ee0 <pu                       ts@GLIBC_2.2.5>
  402a0b:       be 01 00 00 00          mov    $0x1,%esi
  402a10:       bf 01 00 00 00          mov    $0x1,%edi
  402a15:       67 e8 e9 00 00 00       addr32 call 402b04 <validate>

0000000000402a1b <touch2>:
  402a1b:       55                      push   %rbp
  402a1c:       48 89 e5                mov    %rsp,%rbp
  402a1f:       48 83 e4 f0             and    $0xfffffffffffffff0,%rsp
  402a23:       89 fa                   mov    %edi,%edx
  402a25:       c7 05 6d 36 00 00 02    movl   $0x2,0x366d(%rip)        # 40609c                        <vlevel>
  402a2c:       00 00 00
  402a2f:       39 3d 63 36 00 00       cmp    %edi,0x3663(%rip)        # 406098                        <cookie>
  402a35:       74 27                   je     402a5e <touch2+0x43>
  402a37:       48 8d 35 b2 17 00 00    lea    0x17b2(%rip),%rsi        # 4041f0                        <target_prefix+0x90>
  402a3e:       bf 01 00 00 00          mov    $0x1,%edi
  402a43:       b8 00 00 00 00          mov    $0x0,%eax
  402a48:       ff 15 3a 35 00 00       call   *0x353a(%rip)        # 405f88 <__                       printf_chk@GLIBC_2.3.4>
  402a4e:       be 00 00 00 00          mov    $0x0,%esi
  402a53:       bf 02 00 00 00          mov    $0x2,%edi
  402a58:       67 e8 a6 00 00 00       addr32 call 402b04 <validate>
  402a5e:       48 8d 35 63 17 00 00    lea    0x1763(%rip),%rsi        # 4041c8                        <target_prefix+0x68>
  402a65:       bf 01 00 00 00          mov    $0x1,%edi
  402a6a:       b8 00 00 00 00          mov    $0x0,%eax
  402a6f:       ff 15 13 35 00 00       call   *0x3513(%rip)        # 405f88 <__                       printf_chk@GLIBC_2.3.4>
  402a75:       be 01 00 00 00          mov    $0x1,%esi
  402a7a:       bf 02 00 00 00          mov    $0x2,%edi
  402a7f:       67 e8 7f 00 00 00       addr32 call 402b04 <validate>

0000000000402a85 <touch3>:
  402a85:       55                      push   %rbp
  402a86:       48 89 e5                mov    %rsp,%rbp
  402a89:       53                      push   %rbx
  402a8a:       48 83 e4 f0             and    $0xfffffffffffffff0,%rsp
  402a8e:       48 89 fb                mov    %rdi,%rbx
  402a91:       c7 05 01 36 00 00 03    movl   $0x3,0x3601(%rip)        # 40609c                        <vlevel>
  402a98:       00 00 00
  402a9b:       48 89 fe                mov    %rdi,%rsi
  402a9e:       8b 3d f4 35 00 00       mov    0x35f4(%rip),%edi        # 406098                        <cookie>
  402aa4:       e8 03 fe ff ff          call   4028ac <hexmatch>
  402aa9:       85 c0                   test   %eax,%eax
  402aab:       74 1f                   je     402acc <touch3+0x47>
  402aad:       48 89 de                mov    %rbx,%rsi
  402ab0:       48 8d 3d fd 16 00 00    lea    0x16fd(%rip),%rdi        # 4041b4                        <target_prefix+0x54>
  402ab7:       e8 68 fe ff ff          call   402924 <report_touch3>
  402abc:       be 01 00 00 00          mov    $0x1,%esi
  402ac1:       bf 03 00 00 00          mov    $0x3,%edi
  402ac6:       67 e8 38 00 00 00       addr32 call 402b04 <validate>
  402acc:       48 89 de                mov    %rbx,%rsi
  402acf:       48 8d 3d e6 16 00 00    lea    0x16e6(%rip),%rdi        # 4041bc                        <target_prefix+0x5c>
  402ad6:       e8 49 fe ff ff          call   402924 <report_touch3>
  402adb:       be 00 00 00 00          mov    $0x0,%esi
  402ae0:       bf 03 00 00 00          mov    $0x3,%edi
  402ae5:       67 e8 19 00 00 00       addr32 call 402b04 <validate>

0000000000402aeb <test>:
  402aeb:       50                      push   %rax
  402aec:       58                      pop    %rax
  402aed:       48 83 ec 08             sub    $0x8,%rsp
  402af1:       67 e8 7b fd ff ff       addr32 call 402872 <decode_line>
  402af7:       0f b6 3d 16 17 00 00    movzbl 0x1716(%rip),%edi        # 404214                        <is_checker>
  402afe:       ff 15 b4 34 00 00       call   *0x34b4(%rip)        # 405fb8 <ex                       it@GLIBC_2.2.5>

0000000000402b04 <validate>:
  402b04:       8b 15 92 35 00 00       mov    0x3592(%rip),%edx        # 40609c                        <vlevel>
  402b0a:       8b 0d 90 35 00 00       mov    0x3590(%rip),%ecx        # 4060a0                        <check_level>
  402b10:       e9 b6 04 00 00          jmp    402fcb <validate_inner>

0000000000402b15 <save_and_submit>:
  402b15:       41 57                   push   %r15
  402b17:       41 56                   push   %r14
  402b19:       41 55                   push   %r13
  402b1b:       41 54                   push   %r12
  402b1d:       55                      push   %rbp
  402b1e:       53                      push   %rbx
  402b1f:       48 83 ec 28             sub    $0x28,%rsp
  402b23:       89 fd                   mov    %edi,%ebp
  402b25:       41 89 f6                mov    %esi,%r14d
  402b28:       49 89 d4                mov    %rdx,%r12
  402b2b:       49 89 cd                mov    %rcx,%r13
  402b2e:       64 48 8b 04 25 28 00    mov    %fs:0x28,%rax
  402b35:       00 00
  402b37:       48 89 44 24 18          mov    %rax,0x18(%rsp)
  402b3c:       31 c0                   xor    %eax,%eax
  402b3e:       48 8b 3d 4b 35 00 00    mov    0x354b(%rip),%rdi        # 406090                        <input_buf>
  402b45:       ff 15 1d 34 00 00       call   *0x341d(%rip)        # 405f68 <ff                       lush@GLIBC_2.2.5>
  402b4b:       85 c0                   test   %eax,%eax
  402b4d:       0f 85 87 01 00 00       jne    402cda <save_and_submit+0x1c5>
  402b53:       44 0f be 3d 05 16 00    movsbl 0x1605(%rip),%r15d        # 40416                       0 <target_prefix>
  402b5a:       00
  402b5b:       48 8d 7c 24 10          lea    0x10(%rsp),%rdi
  402b60:       41 89 e8                mov    %ebp,%r8d
  402b63:       44 89 f9                mov    %r15d,%ecx
  402b66:       48 8d 15 c7 16 00 00    lea    0x16c7(%rip),%rdx        # 404234                        <is_checker+0x20>
  402b6d:       be 01 00 00 00          mov    $0x1,%esi
  402b72:       b8 00 00 00 00          mov    $0x0,%eax
  402b77:       ff 15 a3 33 00 00       call   *0x33a3(%rip)        # 405f20 <__                       asprintf_chk@GLIBC_2.8>
  402b7d:       83 f8 ff                cmp    $0xffffffff,%eax
  402b80:       0f 84 6c 01 00 00       je     402cf2 <save_and_submit+0x1dd>
  402b86:       48 8d 35 c4 16 00 00    lea    0x16c4(%rip),%rsi        # 404251                        <is_checker+0x3d>
  402b8d:       48 8b 7c 24 10          mov    0x10(%rsp),%rdi
  402b92:       ff 15 00 34 00 00       call   *0x3400(%rip)        # 405f98 <fo                       pen@GLIBC_2.2.5>
  402b98:       48 89 c3                mov    %rax,%rbx
  402b9b:       48 85 c0                test   %rax,%rax
  402b9e:       0f 84 66 01 00 00       je     402d0a <save_and_submit+0x1f5>
  402ba4:       45 84 f6                test   %r14b,%r14b
  402ba7:       0f 84 73 01 00 00       je     402d20 <save_and_submit+0x20b>
  402bad:       48 8d 0d 64 16 00 00    lea    0x1664(%rip),%rcx        # 404218                        <is_checker+0x4>
  402bb4:       45 89 f9                mov    %r15d,%r9d
  402bb7:       41 89 e8                mov    %ebp,%r8d
  402bba:       48 8d 15 1f 17 00 00    lea    0x171f(%rip),%rdx        # 4042e0                        <is_checker+0xcc>
  402bc1:       be 01 00 00 00          mov    $0x1,%esi
  402bc6:       48 89 df                mov    %rbx,%rdi
  402bc9:       b8 00 00 00 00          mov    $0x0,%eax
  402bce:       ff 15 f4 33 00 00       call   *0x33f4(%rip)        # 405fc8 <__                       fprintf_chk@GLIBC_2.3.4>
  402bd4:       4d 85 e4                test   %r12,%r12
  402bd7:       0f 95 c0                setne  %al
  402bda:       4d 85 ed                test   %r13,%r13
  402bdd:       0f 95 c2                setne  %dl
  402be0:       84 c2                   test   %al,%dl
  402be2:       0f 85 44 01 00 00       jne    402d2c <save_and_submit+0x217>
  402be8:       48 89 de                mov    %rbx,%rsi
  402beb:       bf 0a 00 00 00          mov    $0xa,%edi
  402bf0:       ff 15 22 33 00 00       call   *0x3322(%rip)        # 405f18 <fp                       utc@GLIBC_2.2.5>
  402bf6:       48 89 d9                mov    %rbx,%rcx
  402bf9:       48 8b 15 a8 34 00 00    mov    0x34a8(%rip),%rdx        # 4060a8                        <raw_exploit_len>
  402c00:       be 01 00 00 00          mov    $0x1,%esi
  402c05:       48 8b 3d a4 34 00 00    mov    0x34a4(%rip),%rdi        # 4060b0                        <raw_exploit>
  402c0c:       ff 15 ae 33 00 00       call   *0x33ae(%rip)        # 405fc0 <fw                       rite@GLIBC_2.2.5>
  402c12:       48 8b 15 97 34 00 00    mov    0x3497(%rip),%rdx        # 4060b0                        <raw_exploit>
  402c19:       48 8b 05 88 34 00 00    mov    0x3488(%rip),%rax        # 4060a8                        <raw_exploit_len>
  402c20:       80 7c 02 ff 0a          cmpb   $0xa,-0x1(%rdx,%rax,1)
  402c25:       0f 85 42 01 00 00       jne    402d6d <save_and_submit+0x258>
  402c2b:       48 89 df                mov    %rbx,%rdi
  402c2e:       ff 15 b4 32 00 00       call   *0x32b4(%rip)        # 405ee8 <fe                       rror@GLIBC_2.2.5>
  402c34:       85 c0                   test   %eax,%eax
  402c36:       0f 85 44 01 00 00       jne    402d80 <save_and_submit+0x26b>
  402c3c:       48 89 df                mov    %rbx,%rdi
  402c3f:       ff 15 b3 32 00 00       call   *0x32b3(%rip)        # 405ef8 <fc                       lose@GLIBC_2.2.5>
  402c45:       85 c0                   test   %eax,%eax
  402c47:       0f 85 33 01 00 00       jne    402d80 <save_and_submit+0x26b>
  402c4d:       48 8d 7c 24 08          lea    0x8(%rsp),%rdi
  402c52:       4c 8b 0d e7 33 00 00    mov    0x33e7(%rip),%r9        # 406040                        <__environ@GLIBC_2.2.5>
  402c59:       4c 8d 05 60 30 00 00    lea    0x3060(%rip),%r8        # 405cc0                        <make_argv.0>
  402c60:       b9 00 00 00 00          mov    $0x0,%ecx
  402c65:       ba 00 00 00 00          mov    $0x0,%edx
  402c6a:       48 8d 35 f1 15 00 00    lea    0x15f1(%rip),%rsi        # 404262                        <is_checker+0x4e>
  402c71:       ff 15 01 33 00 00       call   *0x3301(%rip)        # 405f78 <po                       six_spawnp@GLIBC_2.15>
  402c77:       85 c0                   test   %eax,%eax
  402c79:       0f 85 19 01 00 00       jne    402d98 <save_and_submit+0x283>
  402c7f:       48 8d 74 24 0c          lea    0xc(%rsp),%rsi
  402c84:       ba 00 00 00 00          mov    $0x0,%edx
  402c89:       8b 7c 24 08             mov    0x8(%rsp),%edi
  402c8d:       ff 15 fd 32 00 00       call   *0x32fd(%rip)        # 405f90 <wa                       itpid@GLIBC_2.2.5>
  402c93:       83 f8 ff                cmp    $0xffffffff,%eax
  402c96:       0f 84 30 01 00 00       je     402dcc <save_and_submit+0x2b7>
  402c9c:       8b 4c 24 0c             mov    0xc(%rsp),%ecx
  402ca0:       89 cf                   mov    %ecx,%edi
  402ca2:       83 e7 7f                and    $0x7f,%edi
  402ca5:       0f 85 64 01 00 00       jne    402e0f <save_and_submit+0x2fa>
  402cab:       0f b6 c5                movzbl %ch,%eax
  402cae:       f6 c5 ff                test   $0xff,%ch
  402cb1:       0f 85 2d 01 00 00       jne    402de4 <save_and_submit+0x2cf>
  402cb7:       48 8b 44 24 18          mov    0x18(%rsp),%rax
  402cbc:       64 48 2b 04 25 28 00    sub    %fs:0x28,%rax
  402cc3:       00 00
  402cc5:       0f 85 ab 01 00 00       jne    402e76 <save_and_submit+0x361>
  402ccb:       48 83 c4 28             add    $0x28,%rsp
  402ccf:       5b                      pop    %rbx
  402cd0:       5d                      pop    %rbp
  402cd1:       41 5c                   pop    %r12
  402cd3:       41 5d                   pop    %r13
  402cd5:       41 5e                   pop    %r14
  402cd7:       41 5f                   pop    %r15
  402cd9:       c3                      ret
  402cda:       48 8d 3d 49 15 00 00    lea    0x1549(%rip),%rdi        # 40422a                        <is_checker+0x16>
  402ce1:       ff 15 b9 32 00 00       call   *0x32b9(%rip)        # 405fa0 <pe                       rror@GLIBC_2.2.5>
  402ce7:       bf 01 00 00 00          mov    $0x1,%edi
  402cec:       ff 15 c6 32 00 00       call   *0x32c6(%rip)        # 405fb8 <ex                       it@GLIBC_2.2.5>
  402cf2:       48 8d 3d 4f 15 00 00    lea    0x154f(%rip),%rdi        # 404248                        <is_checker+0x34>
  402cf9:       ff 15 a1 32 00 00       call   *0x32a1(%rip)        # 405fa0 <pe                       rror@GLIBC_2.2.5>
  402cff:       bf 01 00 00 00          mov    $0x1,%edi
  402d04:       ff 15 ae 32 00 00       call   *0x32ae(%rip)        # 405fb8 <ex                       it@GLIBC_2.2.5>
  402d0a:       48 8b 7c 24 10          mov    0x10(%rsp),%rdi
  402d0f:       ff 15 8b 32 00 00       call   *0x328b(%rip)        # 405fa0 <pe                       rror@GLIBC_2.2.5>
  402d15:       bf 01 00 00 00          mov    $0x1,%edi
  402d1a:       ff 15 98 32 00 00       call   *0x3298(%rip)        # 405fb8 <ex                       it@GLIBC_2.2.5>
  402d20:       48 8d 0d fc 14 00 00    lea    0x14fc(%rip),%rcx        # 404223                        <is_checker+0xf>
  402d27:       e9 88 fe ff ff          jmp    402bb4 <save_and_submit+0x9f>
  402d2c:       48 89 d9                mov    %rbx,%rcx
  402d2f:       ba 02 00 00 00          mov    $0x2,%edx
  402d34:       be 01 00 00 00          mov    $0x1,%esi
  402d39:       48 8d 3d 13 15 00 00    lea    0x1513(%rip),%rdi        # 404253                        <is_checker+0x3f>
  402d40:       ff 15 7a 32 00 00       call   *0x327a(%rip)        # 405fc0 <fw                       rite@GLIBC_2.2.5>
  402d46:       4c 89 e9                mov    %r13,%rcx
  402d49:       4c 89 e2                mov    %r12,%rdx
  402d4c:       be 01 00 00 00          mov    $0x1,%esi
  402d51:       48 89 df                mov    %rbx,%rdi
  402d54:       ff 15 5e 31 00 00       call   *0x315e(%rip)        # 405eb8 <__                       vfprintf_chk@GLIBC_2.3.4>
  402d5a:       48 89 de                mov    %rbx,%rsi
  402d5d:       bf 0a 00 00 00          mov    $0xa,%edi
  402d62:       ff 15 b0 31 00 00       call   *0x31b0(%rip)        # 405f18 <fp                       utc@GLIBC_2.2.5>
  402d68:       e9 7b fe ff ff          jmp    402be8 <save_and_submit+0xd3>
  402d6d:       48 89 de                mov    %rbx,%rsi
  402d70:       bf 0a 00 00 00          mov    $0xa,%edi
  402d75:       ff 15 9d 31 00 00       call   *0x319d(%rip)        # 405f18 <fp                       utc@GLIBC_2.2.5>
  402d7b:       e9 ab fe ff ff          jmp    402c2b <save_and_submit+0x116>
  402d80:       48 8d 3d cf 14 00 00    lea    0x14cf(%rip),%rdi        # 404256                        <is_checker+0x42>
  402d87:       ff 15 13 32 00 00       call   *0x3213(%rip)        # 405fa0 <pe                       rror@GLIBC_2.2.5>
  402d8d:       bf 01 00 00 00          mov    $0x1,%edi
  402d92:       ff 15 20 32 00 00       call   *0x3220(%rip)        # 405fb8 <ex                       it@GLIBC_2.2.5>
  402d98:       89 c7                   mov    %eax,%edi
  402d9a:       ff 15 30 32 00 00       call   *0x3230(%rip)        # 405fd0 <st                       rerror@GLIBC_2.2.5>
  402da0:       48 89 c1                mov    %rax,%rcx
  402da3:       48 8d 15 66 15 00 00    lea    0x1566(%rip),%rdx        # 404310                        <is_checker+0xfc>
  402daa:       be 01 00 00 00          mov    $0x1,%esi
  402daf:       48 8b 3d ca 32 00 00    mov    0x32ca(%rip),%rdi        # 406080                        <stderr@GLIBC_2.2.5>
  402db6:       b8 00 00 00 00          mov    $0x0,%eax
  402dbb:       ff 15 07 32 00 00       call   *0x3207(%rip)        # 405fc8 <__                       fprintf_chk@GLIBC_2.3.4>
  402dc1:       bf 01 00 00 00          mov    $0x1,%edi
  402dc6:       ff 15 ec 31 00 00       call   *0x31ec(%rip)        # 405fb8 <ex                       it@GLIBC_2.2.5>
  402dcc:       48 8d 3d 65 15 00 00    lea    0x1565(%rip),%rdi        # 404338                        <is_checker+0x124>
  402dd3:       ff 15 c7 31 00 00       call   *0x31c7(%rip)        # 405fa0 <pe                       rror@GLIBC_2.2.5>
  402dd9:       bf 01 00 00 00          mov    $0x1,%edi
  402dde:       ff 15 d4 31 00 00       call   *0x31d4(%rip)        # 405fb8 <ex                       it@GLIBC_2.2.5>
  402de4:       89 c1                   mov    %eax,%ecx
  402de6:       48 8d 15 7a 14 00 00    lea    0x147a(%rip),%rdx        # 404267                        <is_checker+0x53>
  402ded:       be 01 00 00 00          mov    $0x1,%esi
  402df2:       48 8b 3d 87 32 00 00    mov    0x3287(%rip),%rdi        # 406080                        <stderr@GLIBC_2.2.5>
  402df9:       b8 00 00 00 00          mov    $0x0,%eax
  402dfe:       ff 15 c4 31 00 00       call   *0x31c4(%rip)        # 405fc8 <__                       fprintf_chk@GLIBC_2.3.4>
  402e04:       bf 01 00 00 00          mov    $0x1,%edi
  402e09:       ff 15 a9 31 00 00       call   *0x31a9(%rip)        # 405fb8 <ex                       it@GLIBC_2.2.5>
  402e0f:       89 c8                   mov    %ecx,%eax
  402e11:       83 e0 7f                and    $0x7f,%eax
  402e14:       83 c0 01                add    $0x1,%eax
  402e17:       3c 01                   cmp    $0x1,%al
  402e19:       7e 32                   jle    402e4d <save_and_submit+0x338>
  402e1b:       ff 15 5f 31 00 00       call   *0x315f(%rip)        # 405f80 <st                       rsignal@GLIBC_2.2.5>
  402e21:       48 89 c1                mov    %rax,%rcx
  402e24:       48 8d 15 52 14 00 00    lea    0x1452(%rip),%rdx        # 40427d                        <is_checker+0x69>
  402e2b:       be 01 00 00 00          mov    $0x1,%esi
  402e30:       48 8b 3d 49 32 00 00    mov    0x3249(%rip),%rdi        # 406080                        <stderr@GLIBC_2.2.5>
  402e37:       b8 00 00 00 00          mov    $0x0,%eax
  402e3c:       ff 15 86 31 00 00       call   *0x3186(%rip)        # 405fc8 <__                       fprintf_chk@GLIBC_2.3.4>
  402e42:       bf 01 00 00 00          mov    $0x1,%edi
  402e47:       ff 15 6b 31 00 00       call   *0x316b(%rip)        # 405fb8 <ex                       it@GLIBC_2.2.5>
  402e4d:       48 8d 15 3a 14 00 00    lea    0x143a(%rip),%rdx        # 40428e                        <is_checker+0x7a>
  402e54:       be 01 00 00 00          mov    $0x1,%esi
  402e59:       48 8b 3d 20 32 00 00    mov    0x3220(%rip),%rdi        # 406080                        <stderr@GLIBC_2.2.5>
  402e60:       b8 00 00 00 00          mov    $0x0,%eax
  402e65:       ff 15 5d 31 00 00       call   *0x315d(%rip)        # 405fc8 <__                       fprintf_chk@GLIBC_2.3.4>
  402e6b:       bf 01 00 00 00          mov    $0x1,%edi
  402e70:       ff 15 42 31 00 00       call   *0x3142(%rip)        # 405fb8 <ex                       it@GLIBC_2.2.5>
  402e76:       ff 15 84 30 00 00       call   *0x3084(%rip)        # 405f00 <__                       stack_chk_fail@GLIBC_2.4>

0000000000402e7c <notify_pass>:
  402e7c:       53                      push   %rbx
  402e7d:       89 fb                   mov    %edi,%ebx
  402e7f:       48 8d 3d e2 14 00 00    lea    0x14e2(%rip),%rdi        # 404368                        <is_checker+0x154>
  402e86:       ff 15 54 30 00 00       call   *0x3054(%rip)        # 405ee0 <pu                       ts@GLIBC_2.2.5>
  402e8c:       b9 00 00 00 00          mov    $0x0,%ecx
  402e91:       ba 00 00 00 00          mov    $0x0,%edx
  402e96:       be 01 00 00 00          mov    $0x1,%esi
  402e9b:       89 df                   mov    %ebx,%edi
  402e9d:       e8 73 fc ff ff          call   402b15 <save_and_submit>
  402ea2:       bf 00 00 00 00          mov    $0x0,%edi
  402ea7:       ff 15 0b 31 00 00       call   *0x310b(%rip)        # 405fb8 <ex                       it@GLIBC_2.2.5>

0000000000402ead <notify_fail>:
  402ead:       41 54                   push   %r12
  402eaf:       55                      push   %rbp
  402eb0:       53                      push   %rbx
  402eb1:       48 81 ec d0 00 00 00    sub    $0xd0,%rsp
  402eb8:       89 fd                   mov    %edi,%ebp
  402eba:       48 89 f3                mov    %rsi,%rbx
  402ebd:       48 89 54 24 30          mov    %rdx,0x30(%rsp)
  402ec2:       48 89 4c 24 38          mov    %rcx,0x38(%rsp)
  402ec7:       4c 89 44 24 40          mov    %r8,0x40(%rsp)
  402ecc:       4c 89 4c 24 48          mov    %r9,0x48(%rsp)
  402ed1:       84 c0                   test   %al,%al
  402ed3:       74 37                   je     402f0c <notify_fail+0x5f>
  402ed5:       0f 29 44 24 50          movaps %xmm0,0x50(%rsp)
  402eda:       0f 29 4c 24 60          movaps %xmm1,0x60(%rsp)
  402edf:       0f 29 54 24 70          movaps %xmm2,0x70(%rsp)
  402ee4:       0f 29 9c 24 80 00 00    movaps %xmm3,0x80(%rsp)
  402eeb:       00
  402eec:       0f 29 a4 24 90 00 00    movaps %xmm4,0x90(%rsp)
  402ef3:       00
  402ef4:       0f 29 ac 24 a0 00 00    movaps %xmm5,0xa0(%rsp)
  402efb:       00
  402efc:       0f 29 b4 24 b0 00 00    movaps %xmm6,0xb0(%rsp)
  402f03:       00
  402f04:       0f 29 bc 24 c0 00 00    movaps %xmm7,0xc0(%rsp)
  402f0b:       00
  402f0c:       64 48 8b 04 25 28 00    mov    %fs:0x28,%rax
  402f13:       00 00
  402f15:       48 89 44 24 18          mov    %rax,0x18(%rsp)
  402f1a:       31 c0                   xor    %eax,%eax
  402f1c:       48 8b 0d fd 30 00 00    mov    0x30fd(%rip),%rcx        # 406020                        <stdout@GLIBC_2.2.5>
  402f23:       ba 06 00 00 00          mov    $0x6,%edx
  402f28:       be 01 00 00 00          mov    $0x1,%esi
  402f2d:       48 8d 3d 73 13 00 00    lea    0x1373(%rip),%rdi        # 4042a7                        <is_checker+0x93>
  402f34:       ff 15 86 30 00 00       call   *0x3086(%rip)        # 405fc0 <fw                       rite@GLIBC_2.2.5>
  402f3a:       c7 04 24 10 00 00 00    movl   $0x10,(%rsp)
  402f41:       c7 44 24 04 30 00 00    movl   $0x30,0x4(%rsp)
  402f48:       00
  402f49:       48 8d 84 24 f0 00 00    lea    0xf0(%rsp),%rax
  402f50:       00
  402f51:       48 89 44 24 08          mov    %rax,0x8(%rsp)
  402f56:       48 8d 44 24 20          lea    0x20(%rsp),%rax
  402f5b:       48 89 44 24 10          mov    %rax,0x10(%rsp)
  402f60:       49 89 e4                mov    %rsp,%r12
  402f63:       4c 89 e1                mov    %r12,%rcx
  402f66:       48 89 da                mov    %rbx,%rdx
  402f69:       be 01 00 00 00          mov    $0x1,%esi
  402f6e:       48 8b 3d ab 30 00 00    mov    0x30ab(%rip),%rdi        # 406020                        <stdout@GLIBC_2.2.5>
  402f75:       ff 15 3d 2f 00 00       call   *0x2f3d(%rip)        # 405eb8 <__                       vfprintf_chk@GLIBC_2.3.4>
  402f7b:       48 8d 3d 26 14 00 00    lea    0x1426(%rip),%rdi        # 4043a8                        <is_checker+0x194>
  402f82:       ff 15 58 2f 00 00       call   *0x2f58(%rip)        # 405ee0 <pu                       ts@GLIBC_2.2.5>
  402f88:       c7 04 24 10 00 00 00    movl   $0x10,(%rsp)
  402f8f:       c7 44 24 04 30 00 00    movl   $0x30,0x4(%rsp)
  402f96:       00
  402f97:       48 8d 84 24 f0 00 00    lea    0xf0(%rsp),%rax
  402f9e:       00
  402f9f:       48 89 44 24 08          mov    %rax,0x8(%rsp)
  402fa4:       48 8d 44 24 20          lea    0x20(%rsp),%rax
  402fa9:       48 89 44 24 10          mov    %rax,0x10(%rsp)
  402fae:       4c 89 e1                mov    %r12,%rcx
  402fb1:       48 89 da                mov    %rbx,%rdx
  402fb4:       be 00 00 00 00          mov    $0x0,%esi
  402fb9:       89 ef                   mov    %ebp,%edi
  402fbb:       e8 55 fb ff ff          call   402b15 <save_and_submit>
  402fc0:       bf 01 00 00 00          mov    $0x1,%edi
  402fc5:       ff 15 ed 2f 00 00       call   *0x2fed(%rip)        # 405fb8 <ex                       it@GLIBC_2.2.5>

0000000000402fcb <validate_inner>:
  402fcb:       50                      push   %rax
  402fcc:       58                      pop    %rax
  402fcd:       48 83 ec 08             sub    $0x8,%rsp
  402fd1:       85 c9                   test   %ecx,%ecx
  402fd3:       75 15                   jne    402fea <validate_inner+0x1f>
  402fd5:       41 89 d0                mov    %edx,%r8d
  402fd8:       85 d2                   test   %edx,%edx
  402fda:       7e 21                   jle    402ffd <validate_inner+0x32>
  402fdc:       39 fa                   cmp    %edi,%edx
  402fde:       75 2e                   jne    40300e <validate_inner+0x43>
  402fe0:       40 84 f6                test   %sil,%sil
  402fe3:       74 3e                   je     403023 <validate_inner+0x58>
  402fe5:       e8 92 fe ff ff          call   402e7c <notify_pass>
  402fea:       89 ca                   mov    %ecx,%edx
  402fec:       48 8d 35 e5 13 00 00    lea    0x13e5(%rip),%rsi        # 4043d8                        <is_checker+0x1c4>
  402ff3:       b8 00 00 00 00          mov    $0x0,%eax
  402ff8:       e8 b0 fe ff ff          call   402ead <notify_fail>
  402ffd:       48 8d 35 aa 12 00 00    lea    0x12aa(%rip),%rsi        # 4042ae                        <is_checker+0x9a>
  403004:       b8 00 00 00 00          mov    $0x0,%eax
  403009:       e8 9f fe ff ff          call   402ead <notify_fail>
  40300e:       89 d1                   mov    %edx,%ecx
  403010:       89 fa                   mov    %edi,%edx
  403012:       48 8d 35 e7 13 00 00    lea    0x13e7(%rip),%rsi        # 404400                        <is_checker+0x1ec>
  403019:       b8 00 00 00 00          mov    $0x0,%eax
  40301e:       e8 8a fe ff ff          call   402ead <notify_fail>
  403023:       89 fa                   mov    %edi,%edx
  403025:       48 8d 35 04 14 00 00    lea    0x1404(%rip),%rsi        # 404430                        <is_checker+0x21c>
  40302c:       b8 00 00 00 00          mov    $0x0,%eax
  403031:       e8 77 fe ff ff          call   402ead <notify_fail>

0000000000403036 <initialize_target>:
  403036:       53                      push   %rbx
  403037:       89 3d 63 30 00 00       mov    %edi,0x3063(%rip)        # 4060a0                        <check_level>
  40303d:       8b 1d 19 11 00 00       mov    0x1119(%rip),%ebx        # 40415c                        <target_id>
  403043:       89 df                   mov    %ebx,%edi
  403045:       67 e8 ad 05 00 00       addr32 call 4035f8 <gencookie>
  40304b:       89 05 47 30 00 00       mov    %eax,0x3047(%rip)        # 406098                        <cookie>
  403051:       8d 7b 01                lea    0x1(%rbx),%edi
  403054:       ff 15 76 2e 00 00       call   *0x2e76(%rip)        # 405ed0 <sr                       andom@GLIBC_2.2.5>
  40305a:       ff 15 00 2f 00 00       call   *0x2f00(%rip)        # 405f60 <ra                       ndom@GLIBC_2.2.5>
  403060:       89 c7                   mov    %eax,%edi
  403062:       67 e8 46 f2 ff ff       addr32 call 4022ae <scramble>
  403068:       89 c3                   mov    %eax,%ebx
  40306a:       bf 00 00 00 00          mov    $0x0,%edi
  40306f:       ff 15 db 2e 00 00       call   *0x2edb(%rip)        # 405f50 <ti                       me@GLIBC_2.2.5>
  403075:       89 c7                   mov    %eax,%edi
  403077:       ff 15 53 2e 00 00       call   *0x2e53(%rip)        # 405ed0 <sr                       andom@GLIBC_2.2.5>
  40307d:       80 3d dc 10 00 00 63    cmpb   $0x63,0x10dc(%rip)        # 40416                       0 <target_prefix>
  403084:       75 33                   jne    4030b9 <initialize_target+0x83>
  403086:       b8 00 00 00 00          mov    $0x0,%eax
  40308b:       01 d8                   add    %ebx,%eax
  40308d:       0f b7 c0                movzwl %ax,%eax
  403090:       8d 1c c5 00 01 00 00    lea    0x100(,%rax,8),%ebx
  403097:       89 db                   mov    %ebx,%ebx
  403099:       48 8d 35 08 30 00 00    lea    0x3008(%rip),%rsi        # 4060a8                        <raw_exploit_len>
  4030a0:       48 8d 3d 09 30 00 00    lea    0x3009(%rip),%rdi        # 4060b0                        <raw_exploit>
  4030a7:       ff 15 2b 2e 00 00       call   *0x2e2b(%rip)        # 405ed8 <op                       en_memstream@GLIBC_2.2.5>
  4030ad:       48 89 05 dc 2f 00 00    mov    %rax,0x2fdc(%rip)        # 406090                        <input_buf>
  4030b4:       48 89 d8                mov    %rbx,%rax
  4030b7:       5b                      pop    %rbx
  4030b8:       c3                      ret
  4030b9:       ff 15 a1 2e 00 00       call   *0x2ea1(%rip)        # 405f60 <ra                       ndom@GLIBC_2.2.5>
  4030bf:       eb ca                   jmp    40308b <initialize_target+0x55>

00000000004030c1 <get_hex_digit>:
  4030c1:       41 54                   push   %r12
  4030c3:       55                      push   %rbp
  4030c4:       53                      push   %rbx
  4030c5:       48 89 fd                mov    %rdi,%rbp
  4030c8:       41 bc 00 00 00 00       mov    $0x0,%r12d
  4030ce:       eb 43                   jmp    403113 <get_hex_digit+0x52>
  4030d0:       41 bc 01 00 00 00       mov    $0x1,%r12d
  4030d6:       eb 3b                   jmp    403113 <get_hex_digit+0x52>
  4030d8:       48 8b 35 b1 2f 00 00    mov    0x2fb1(%rip),%rsi        # 406090                        <input_buf>
  4030df:       48 85 f6                test   %rsi,%rsi
  4030e2:       74 0b                   je     4030ef <get_hex_digit+0x2e>
  4030e4:       bf 0a 00 00 00          mov    $0xa,%edi
  4030e9:       ff 15 39 2e 00 00       call   *0x2e39(%rip)        # 405f28 <pu                       tc@GLIBC_2.2.5>
  4030ef:       48 89 ef                mov    %rbp,%rdi
  4030f2:       ff 15 e8 2e 00 00       call   *0x2ee8(%rip)        # 405fe0 <ge                       tc@GLIBC_2.2.5>
  4030f8:       89 c3                   mov    %eax,%ebx
  4030fa:       83 f8 ff                cmp    $0xffffffff,%eax
  4030fd:       74 75                   je     403174 <get_hex_digit+0xb3>
  4030ff:       83 f8 0a                cmp    $0xa,%eax
  403102:       75 77                   jne    40317b <get_hex_digit+0xba>
  403104:       80 3d bd 2f 00 00 00    cmpb   $0x0,0x2fbd(%rip)        # 4060c8                        <infile_is_tty>
  40310b:       75 7e                   jne    40318b <get_hex_digit+0xca>
  40310d:       41 bc 00 00 00 00       mov    $0x0,%r12d
  403113:       48 89 ef                mov    %rbp,%rdi
  403116:       ff 15 c4 2e 00 00       call   *0x2ec4(%rip)        # 405fe0 <ge                       tc@GLIBC_2.2.5>
  40311c:       89 c3                   mov    %eax,%ebx
  40311e:       83 f8 ff                cmp    $0xffffffff,%eax
  403121:       74 51                   je     403174 <get_hex_digit+0xb3>
  403123:       83 f8 0d                cmp    $0xd,%eax
  403126:       74 b0                   je     4030d8 <get_hex_digit+0x17>
  403128:       48 8b 35 61 2f 00 00    mov    0x2f61(%rip),%rsi        # 406090                        <input_buf>
  40312f:       48 85 f6                test   %rsi,%rsi
  403132:       74 08                   je     40313c <get_hex_digit+0x7b>
  403134:       89 c7                   mov    %eax,%edi
  403136:       ff 15 ec 2d 00 00       call   *0x2dec(%rip)        # 405f28 <pu                       tc@GLIBC_2.2.5>
  40313c:       83 fb 0a                cmp    $0xa,%ebx
  40313f:       74 7a                   je     4031bb <get_hex_digit+0xfa>
  403141:       45 84 e4                test   %r12b,%r12b
  403144:       75 cd                   jne    403113 <get_hex_digit+0x52>
  403146:       83 fb 23                cmp    $0x23,%ebx
  403149:       74 85                   je     4030d0 <get_hex_digit+0xf>
  40314b:       83 fb 09                cmp    $0x9,%ebx
  40314e:       0f 94 c0                sete   %al
  403151:       83 fb 20                cmp    $0x20,%ebx
  403154:       0f 94 c2                sete   %dl
  403157:       08 d0                   or     %dl,%al
  403159:       75 b8                   jne    403113 <get_hex_digit+0x52>
  40315b:       ff 15 87 2e 00 00       call   *0x2e87(%rip)        # 405fe8 <__                       ctype_b_loc@GLIBC_2.3>
  403161:       48 8b 00                mov    (%rax),%rax
  403164:       48 63 d3                movslq %ebx,%rdx
  403167:       0f b7 04 50             movzwl (%rax,%rdx,2),%eax
  40316b:       f6 c4 10                test   $0x10,%ah
  40316e:       0f 84 88 00 00 00       je     4031fc <get_hex_digit+0x13b>
  403174:       89 d8                   mov    %ebx,%eax
  403176:       5b                      pop    %rbx
  403177:       5d                      pop    %rbp
  403178:       41 5c                   pop    %r12
  40317a:       c3                      ret
  40317b:       48 89 ee                mov    %rbp,%rsi
  40317e:       89 c7                   mov    %eax,%edi
  403180:       ff 15 ea 2d 00 00       call   *0x2dea(%rip)        # 405f70 <un                       getc@GLIBC_2.2.5>
  403186:       e9 79 ff ff ff          jmp    403104 <get_hex_digit+0x43>
  40318b:       48 8b 0d 8e 2e 00 00    mov    0x2e8e(%rip),%rcx        # 406020                        <stdout@GLIBC_2.2.5>
  403192:       ba 0c 00 00 00          mov    $0xc,%edx
  403197:       be 01 00 00 00          mov    $0x1,%esi
  40319c:       48 8d 3d b5 12 00 00    lea    0x12b5(%rip),%rdi        # 404458                        <is_checker+0x244>
  4031a3:       ff 15 17 2e 00 00       call   *0x2e17(%rip)        # 405fc0 <fw                       rite@GLIBC_2.2.5>
  4031a9:       48 8b 3d 70 2e 00 00    mov    0x2e70(%rip),%rdi        # 406020                        <stdout@GLIBC_2.2.5>
  4031b0:       ff 15 b2 2d 00 00       call   *0x2db2(%rip)        # 405f68 <ff                       lush@GLIBC_2.2.5>
  4031b6:       e9 52 ff ff ff          jmp    40310d <get_hex_digit+0x4c>
  4031bb:       80 3d 06 2f 00 00 00    cmpb   $0x0,0x2f06(%rip)        # 4060c8                        <infile_is_tty>
  4031c2:       75 0b                   jne    4031cf <get_hex_digit+0x10e>
  4031c4:       41 bc 00 00 00 00       mov    $0x0,%r12d
  4031ca:       e9 44 ff ff ff          jmp    403113 <get_hex_digit+0x52>
  4031cf:       48 8b 0d 4a 2e 00 00    mov    0x2e4a(%rip),%rcx        # 406020                        <stdout@GLIBC_2.2.5>
  4031d6:       ba 0c 00 00 00          mov    $0xc,%edx
  4031db:       be 01 00 00 00          mov    $0x1,%esi
  4031e0:       48 8d 3d 71 12 00 00    lea    0x1271(%rip),%rdi        # 404458                        <is_checker+0x244>
  4031e7:       ff 15 d3 2d 00 00       call   *0x2dd3(%rip)        # 405fc0 <fw                       rite@GLIBC_2.2.5>
  4031ed:       48 8b 3d 2c 2e 00 00    mov    0x2e2c(%rip),%rdi        # 406020                        <stdout@GLIBC_2.2.5>
  4031f4:       ff 15 6e 2d 00 00       call   *0x2d6e(%rip)        # 405f68 <ff                       lush@GLIBC_2.2.5>
  4031fa:       eb c8                   jmp    4031c4 <get_hex_digit+0x103>
  4031fc:       66 85 c0                test   %ax,%ax
  4031ff:       78 2b                   js     40322c <get_hex_digit+0x16b>
  403201:       89 d9                   mov    %ebx,%ecx
  403203:       48 8d 15 be 12 00 00    lea    0x12be(%rip),%rdx        # 4044c8                        <is_checker+0x2b4>
  40320a:       be 01 00 00 00          mov    $0x1,%esi
  40320f:       48 8b 3d 6a 2e 00 00    mov    0x2e6a(%rip),%rdi        # 406080                        <stderr@GLIBC_2.2.5>
  403216:       b8 00 00 00 00          mov    $0x0,%eax
  40321b:       ff 15 a7 2d 00 00       call   *0x2da7(%rip)        # 405fc8 <__                       fprintf_chk@GLIBC_2.3.4>
  403221:       bf 01 00 00 00          mov    $0x1,%edi
  403226:       ff 15 8c 2d 00 00       call   *0x2d8c(%rip)        # 405fb8 <ex                       it@GLIBC_2.2.5>
  40322c:       89 d9                   mov    %ebx,%ecx
  40322e:       48 8d 15 6b 12 00 00    lea    0x126b(%rip),%rdx        # 4044a0                        <is_checker+0x28c>
  403235:       be 01 00 00 00          mov    $0x1,%esi
  40323a:       48 8b 3d 3f 2e 00 00    mov    0x2e3f(%rip),%rdi        # 406080                        <stderr@GLIBC_2.2.5>
  403241:       b8 00 00 00 00          mov    $0x0,%eax
  403246:       ff 15 7c 2d 00 00       call   *0x2d7c(%rip)        # 405fc8 <__                       fprintf_chk@GLIBC_2.3.4>
  40324c:       eb d3                   jmp    403221 <get_hex_digit+0x160>

000000000040324e <decode_hex_digit>:
  40324e:       8d 47 d0                lea    -0x30(%rdi),%eax
  403251:       83 f8 09                cmp    $0x9,%eax
  403254:       76 22                   jbe    403278 <decode_hex_digit+0x2a>
  403256:       8d 47 bf                lea    -0x41(%rdi),%eax
  403259:       83 f8 05                cmp    $0x5,%eax
  40325c:       77 04                   ja     403262 <decode_hex_digit+0x14>
  40325e:       8d 47 c9                lea    -0x37(%rdi),%eax
  403261:       c3                      ret
  403262:       8d 47 9f                lea    -0x61(%rdi),%eax
  403265:       83 f8 05                cmp    $0x5,%eax
  403268:       77 04                   ja     40326e <decode_hex_digit+0x20>
  40326a:       8d 47 a9                lea    -0x57(%rdi),%eax
  40326d:       c3                      ret
  40326e:       48 83 ec 08             sub    $0x8,%rsp
  403272:       ff 15 50 2c 00 00       call   *0x2c50(%rip)        # 405ec8 <ab                       ort@GLIBC_2.2.5>
  403278:       c3                      ret

0000000000403279 <launch_in_altstack>:
  403279:       55                      push   %rbp
  40327a:       48 89 e5                mov    %rsp,%rbp
  40327d:       48 83 ec 10             sub    $0x10,%rsp
  403281:       64 48 8b 04 25 28 00    mov    %fs:0x28,%rax
  403288:       00 00
  40328a:       48 89 45 f8             mov    %rax,-0x8(%rbp)
  40328e:       31 c0                   xor    %eax,%eax
  403290:       48 8b 05 29 2e 00 00    mov    0x2e29(%rip),%rax        # 4060c0                        <launch_stack_offset>
  403297:       48 83 c0 17             add    $0x17,%rax
  40329b:       48 89 c1                mov    %rax,%rcx
  40329e:       48 83 e1 f0             and    $0xfffffffffffffff0,%rcx
  4032a2:       48 25 00 f0 ff ff       and    $0xfffffffffffff000,%rax
  4032a8:       48 89 e2                mov    %rsp,%rdx
  4032ab:       48 29 c2                sub    %rax,%rdx
  4032ae:       48 39 d4                cmp    %rdx,%rsp
  4032b1:       74 12                   je     4032c5 <launch_in_altstack+0x4c>
  4032b3:       48 81 ec 00 10 00 00    sub    $0x1000,%rsp
  4032ba:       48 83 8c 24 f8 0f 00    orq    $0x0,0xff8(%rsp)
  4032c1:       00 00
  4032c3:       eb e9                   jmp    4032ae <launch_in_altstack+0x35>
  4032c5:       48 89 c8                mov    %rcx,%rax
  4032c8:       25 ff 0f 00 00          and    $0xfff,%eax
  4032cd:       48 29 c4                sub    %rax,%rsp
  4032d0:       48 85 c0                test   %rax,%rax
  4032d3:       74 06                   je     4032db <launch_in_altstack+0x62>
  4032d5:       48 83 4c 04 f8 00       orq    $0x0,-0x8(%rsp,%rax,1)
  4032db:       48 8d 44 24 0f          lea    0xf(%rsp),%rax
  4032e0:       48 a9 f0 ff ff ff       test   $0xfffffffffffffff0,%rax
  4032e6:       74 20                   je     403308 <launch_in_altstack+0x8f>
  4032e8:       80 3d d9 2d 00 00 00    cmpb   $0x0,0x2dd9(%rip)        # 4060c8                        <infile_is_tty>
  4032ef:       75 2f                   jne    403320 <launch_in_altstack+0xa7>
  4032f1:       c7 05 a1 2d 00 00 00    movl   $0x0,0x2da1(%rip)        # 40609c                        <vlevel>
  4032f8:       00 00 00
  4032fb:       48 8b 3d b6 2d 00 00    mov    0x2db6(%rip),%rdi        # 4060b8                        <launch_infile>
  403302:       67 e8 e3 f7 ff ff       addr32 call 402aeb <test>
  403308:       48 8d 3d 56 11 00 00    lea    0x1156(%rip),%rdi        # 404465                        <is_checker+0x251>
  40330f:       ff 15 8b 2c 00 00       call   *0x2c8b(%rip)        # 405fa0 <pe                       rror@GLIBC_2.2.5>
  403315:       bf 01 00 00 00          mov    $0x1,%edi
  40331a:       ff 15 98 2c 00 00       call   *0x2c98(%rip)        # 405fb8 <ex                       it@GLIBC_2.2.5>
  403320:       8b 15 72 2d 00 00       mov    0x2d72(%rip),%edx        # 406098                        <cookie>
  403326:       48 8d 35 3f 11 00 00    lea    0x113f(%rip),%rsi        # 40446c                        <is_checker+0x258>
  40332d:       bf 01 00 00 00          mov    $0x1,%edi
  403332:       b8 00 00 00 00          mov    $0x0,%eax
  403337:       ff 15 4b 2c 00 00       call   *0x2c4b(%rip)        # 405f88 <__                       printf_chk@GLIBC_2.3.4>
  40333d:       48 8b 3d dc 2c 00 00    mov    0x2cdc(%rip),%rdi        # 406020                        <stdout@GLIBC_2.2.5>
  403344:       ff 15 1e 2c 00 00       call   *0x2c1e(%rip)        # 405f68 <ff                       lush@GLIBC_2.2.5>
  40334a:       eb a5                   jmp    4032f1 <launch_in_altstack+0x78>

000000000040334c <print_line>:
  40334c:       41 54                   push   %r12
  40334e:       55                      push   %rbp
  40334f:       53                      push   %rbx
  403350:       48 89 fb                mov    %rdi,%rbx
  403353:       bd 00 00 00 00          mov    $0x0,%ebp
  403358:       41 bc 00 00 00 00       mov    $0x0,%r12d
  40335e:       eb 22                   jmp    403382 <print_line+0x36>
  403360:       40 0f b6 ff             movzbl %dil,%edi
  403364:       48 8b 35 b5 2c 00 00    mov    0x2cb5(%rip),%rsi        # 406020                        <stdout@GLIBC_2.2.5>
  40336b:       ff 15 b7 2b 00 00       call   *0x2bb7(%rip)        # 405f28 <pu                       tc@GLIBC_2.2.5>
  403371:       80 3b 0a                cmpb   $0xa,(%rbx)
  403374:       40 0f 94 c5             sete   %bpl
  403378:       48 83 c3 01             add    $0x1,%rbx
  40337c:       41 bc 01 00 00 00       mov    $0x1,%r12d
  403382:       ff 15 60 2c 00 00       call   *0x2c60(%rip)        # 405fe8 <__                       ctype_b_loc@GLIBC_2.3>
  403388:       48 8b 00                mov    (%rax),%rax
  40338b:       0f b6 3b                movzbl (%rbx),%edi
  40338e:       40 0f b6 d7             movzbl %dil,%edx
  403392:       66 83 3c 50 00          cmpw   $0x0,(%rax,%rdx,2)
  403397:       78 c7                   js     403360 <print_line+0x14>
  403399:       40 80 ff 20             cmp    $0x20,%dil
  40339d:       74 c1                   je     403360 <print_line+0x14>
  40339f:       40 80 ff 09             cmp    $0x9,%dil
  4033a3:       74 bb                   je     403360 <print_line+0x14>
  4033a5:       40 80 ff 0a             cmp    $0xa,%dil
  4033a9:       74 b5                   je     403360 <print_line+0x14>
  4033ab:       83 f5 01                xor    $0x1,%ebp
  4033ae:       44 84 e5                test   %r12b,%bpl
  4033b1:       75 12                   jne    4033c5 <print_line+0x79>
  4033b3:       48 8b 3d 66 2c 00 00    mov    0x2c66(%rip),%rdi        # 406020                        <stdout@GLIBC_2.2.5>
  4033ba:       ff 15 a8 2b 00 00       call   *0x2ba8(%rip)        # 405f68 <ff                       lush@GLIBC_2.2.5>
  4033c0:       5b                      pop    %rbx
  4033c1:       5d                      pop    %rbp
  4033c2:       41 5c                   pop    %r12
  4033c4:       c3                      ret
  4033c5:       48 8b 35 54 2c 00 00    mov    0x2c54(%rip),%rsi        # 406020                        <stdout@GLIBC_2.2.5>
  4033cc:       bf 0a 00 00 00          mov    $0xa,%edi
  4033d1:       ff 15 51 2b 00 00       call   *0x2b51(%rip)        # 405f28 <pu                       tc@GLIBC_2.2.5>
  4033d7:       eb da                   jmp    4033b3 <print_line+0x67>

00000000004033d9 <get_hex_byte>:
  4033d9:       55                      push   %rbp
  4033da:       53                      push   %rbx
  4033db:       48 83 ec 08             sub    $0x8,%rsp
  4033df:       48 89 fd                mov    %rdi,%rbp
  4033e2:       e8 da fc ff ff          call   4030c1 <get_hex_digit>
  4033e7:       89 c3                   mov    %eax,%ebx
  4033e9:       83 f8 ff                cmp    $0xffffffff,%eax
  4033ec:       74 24                   je     403412 <get_hex_byte+0x39>
  4033ee:       48 89 ef                mov    %rbp,%rdi
  4033f1:       e8 cb fc ff ff          call   4030c1 <get_hex_digit>
  4033f6:       89 c5                   mov    %eax,%ebp
  4033f8:       83 f8 ff                cmp    $0xffffffff,%eax
  4033fb:       74 1e                   je     40341b <get_hex_byte+0x42>
  4033fd:       89 df                   mov    %ebx,%edi
  4033ff:       e8 4a fe ff ff          call   40324e <decode_hex_digit>
  403404:       c1 e0 04                shl    $0x4,%eax
  403407:       89 c3                   mov    %eax,%ebx
  403409:       89 ef                   mov    %ebp,%edi
  40340b:       e8 3e fe ff ff          call   40324e <decode_hex_digit>
  403410:       01 c3                   add    %eax,%ebx
  403412:       89 d8                   mov    %ebx,%eax
  403414:       48 83 c4 08             add    $0x8,%rsp
  403418:       5b                      pop    %rbx
  403419:       5d                      pop    %rbp
  40341a:       c3                      ret
  40341b:       89 c3                   mov    %eax,%ebx
  40341d:       eb f3                   jmp    403412 <get_hex_byte+0x39>

000000000040341f <launch>:
  40341f:       55                      push   %rbp
  403420:       53                      push   %rbx
  403421:       48 81 ec f8 03 00 00    sub    $0x3f8,%rsp
  403428:       89 fb                   mov    %edi,%ebx
  40342a:       48 89 74 24 10          mov    %rsi,0x10(%rsp)
  40342f:       48 89 54 24 18          mov    %rdx,0x18(%rsp)
  403434:       64 48 8b 04 25 28 00    mov    %fs:0x28,%rax
  40343b:       00 00
  40343d:       48 89 84 24 e8 03 00    mov    %rax,0x3e8(%rsp)
  403444:       00
  403445:       31 c0                   xor    %eax,%eax
  403447:       40 84 ff                test   %dil,%dil
  40344a:       74 7d                   je     4034c9 <launch+0xaa>
  40344c:       bd 00 60 58 55          mov    $0x55586000,%ebp
  403451:       84 db                   test   %bl,%bl
  403453:       74 7b                   je     4034d0 <launch+0xb1>
  403455:       b9 22 00 10 00          mov    $0x100022,%ecx
  40345a:       84 db                   test   %bl,%bl
  40345c:       74 79                   je     4034d7 <launch+0xb8>
  40345e:       ba 07 00 00 00          mov    $0x7,%edx
  403463:       41 b9 00 00 00 00       mov    $0x0,%r9d
  403469:       41 b8 ff ff ff ff       mov    $0xffffffff,%r8d
  40346f:       be 00 00 10 00          mov    $0x100000,%esi
  403474:       48 89 ef                mov    %rbp,%rdi
  403477:       ff 15 8b 2a 00 00       call   *0x2a8b(%rip)        # 405f08 <mm                       ap@GLIBC_2.2.5>
  40347d:       48 89 44 24 08          mov    %rax,0x8(%rsp)
  403482:       48 83 f8 ff             cmp    $0xffffffffffffffff,%rax
  403486:       74 56                   je     4034de <launch+0xbf>
  403488:       48 81 fd 00 60 58 55    cmp    $0x55586000,%rbp
  40348f:       0f 95 c0                setne  %al
  403492:       84 d8                   test   %bl,%al
  403494:       74 60                   je     4034f6 <launch+0xd7>
  403496:       4c 8b 44 24 08          mov    0x8(%rsp),%r8
  40349b:       b9 00 60 58 55          mov    $0x55586000,%ecx
  4034a0:       48 8d 15 71 10 00 00    lea    0x1071(%rip),%rdx        # 404518                        <is_checker+0x304>
  4034a7:       be 01 00 00 00          mov    $0x1,%esi
  4034ac:       48 8b 3d cd 2b 00 00    mov    0x2bcd(%rip),%rdi        # 406080                        <stderr@GLIBC_2.2.5>
  4034b3:       b8 00 00 00 00          mov    $0x0,%eax
  4034b8:       ff 15 0a 2b 00 00       call   *0x2b0a(%rip)        # 405fc8 <__                       fprintf_chk@GLIBC_2.3.4>
  4034be:       bf 01 00 00 00          mov    $0x1,%edi
  4034c3:       ff 15 ef 2a 00 00       call   *0x2aef(%rip)        # 405fb8 <ex                       it@GLIBC_2.2.5>
  4034c9:       bd 00 00 00 00          mov    $0x0,%ebp
  4034ce:       eb 81                   jmp    403451 <launch+0x32>
  4034d0:       b9 22 00 00 00          mov    $0x22,%ecx
  4034d5:       eb 83                   jmp    40345a <launch+0x3b>
  4034d7:       ba 03 00 00 00          mov    $0x3,%edx
  4034dc:       eb 85                   jmp    403463 <launch+0x44>
  4034de:       48 8d 3d 13 10 00 00    lea    0x1013(%rip),%rdi        # 4044f8                        <is_checker+0x2e4>
  4034e5:       ff 15 b5 2a 00 00       call   *0x2ab5(%rip)        # 405fa0 <pe                       rror@GLIBC_2.2.5>
  4034eb:       bf 01 00 00 00          mov    $0x1,%edi
  4034f0:       ff 15 c2 2a 00 00       call   *0x2ac2(%rip)        # 405fb8 <ex                       it@GLIBC_2.2.5>
  4034f6:       ba 00 00 10 00          mov    $0x100000,%edx
  4034fb:       be f4 00 00 00          mov    $0xf4,%esi
  403500:       48 8b 7c 24 08          mov    0x8(%rsp),%rdi
  403505:       ff 15 05 2a 00 00       call   *0x2a05(%rip)        # 405f10 <me                       mset@GLIBC_2.2.5>
  40350b:       48 8d 7c 24 20          lea    0x20(%rsp),%rdi
  403510:       ff 15 c2 2a 00 00       call   *0x2ac2(%rip)        # 405fd8 <ge                       tcontext@GLIBC_2.2.5>
  403516:       85 c0                   test   %eax,%eax
  403518:       74 18                   je     403532 <launch+0x113>
  40351a:       48 8d 3d 66 0f 00 00    lea    0xf66(%rip),%rdi        # 404487                        <is_checker+0x273>
  403521:       ff 15 79 2a 00 00       call   *0x2a79(%rip)        # 405fa0 <pe                       rror@GLIBC_2.2.5>
  403527:       bf 01 00 00 00          mov    $0x1,%edi
  40352c:       ff 15 86 2a 00 00       call   *0x2a86(%rip)        # 405fb8 <ex                       it@GLIBC_2.2.5>
  403532:       48 8b 44 24 08          mov    0x8(%rsp),%rax
  403537:       48 89 44 24 30          mov    %rax,0x30(%rsp)
  40353c:       c7 44 24 38 00 00 00    movl   $0x0,0x38(%rsp)
  403543:       00
  403544:       48 c7 44 24 40 00 00    movq   $0x100000,0x40(%rsp)
  40354b:       10 00
  40354d:       48 c7 44 24 28 00 00    movq   $0x0,0x28(%rsp)
  403554:       00 00
  403556:       48 8d 5c 24 20          lea    0x20(%rsp),%rbx
  40355b:       ba 00 00 00 00          mov    $0x0,%edx
  403560:       48 8d 35 12 fd ff ff    lea    -0x2ee(%rip),%rsi        # 403279                        <launch_in_altstack>
  403567:       48 89 df                mov    %rbx,%rdi
  40356a:       b8 00 00 00 00          mov    $0x0,%eax
  40356f:       ff 15 d3 29 00 00       call   *0x29d3(%rip)        # 405f48 <ma                       kecontext@GLIBC_2.2.5>
  403575:       48 8b 44 24 10          mov    0x10(%rsp),%rax
  40357a:       48 89 05 3f 2b 00 00    mov    %rax,0x2b3f(%rip)        # 4060c0                        <launch_stack_offset>
  403581:       48 8b 44 24 18          mov    0x18(%rsp),%rax
  403586:       48 89 05 2b 2b 00 00    mov    %rax,0x2b2b(%rip)        # 4060b8                        <launch_infile>
  40358d:       48 89 c7                mov    %rax,%rdi
  403590:       ff 15 c2 29 00 00       call   *0x29c2(%rip)        # 405f58 <fi                       leno@GLIBC_2.2.5>
  403596:       89 c7                   mov    %eax,%edi
  403598:       ff 15 52 29 00 00       call   *0x2952(%rip)        # 405ef0 <is                       atty@GLIBC_2.2.5>
  40359e:       85 c0                   test   %eax,%eax
  4035a0:       0f 95 05 21 2b 00 00    setne  0x2b21(%rip)        # 4060c8 <inf                       ile_is_tty>
  4035a7:       48 89 df                mov    %rbx,%rdi
  4035aa:       ff 15 80 29 00 00       call   *0x2980(%rip)        # 405f30 <se                       tcontext@GLIBC_2.2.5>
  4035b0:       48 8d 3d db 0e 00 00    lea    0xedb(%rip),%rdi        # 404492                        <is_checker+0x27e>
  4035b7:       ff 15 e3 29 00 00       call   *0x29e3(%rip)        # 405fa0 <pe                       rror@GLIBC_2.2.5>
  4035bd:       bf 01 00 00 00          mov    $0x1,%edi
  4035c2:       ff 15 f0 29 00 00       call   *0x29f0(%rip)        # 405fb8 <ex                       it@GLIBC_2.2.5>

00000000004035c8 <check>:
  4035c8:       89 f8                   mov    %edi,%eax
  4035ca:       c1 e8 1c                shr    $0x1c,%eax
  4035cd:       74 1d                   je     4035ec <check+0x24>
  4035cf:       b9 00 00 00 00          mov    $0x0,%ecx
  4035d4:       83 f9 1f                cmp    $0x1f,%ecx
  4035d7:       7f 0d                   jg     4035e6 <check+0x1e>
  4035d9:       89 f8                   mov    %edi,%eax
  4035db:       d3 e8                   shr    %cl,%eax
  4035dd:       3c 0a                   cmp    $0xa,%al
  4035df:       74 11                   je     4035f2 <check+0x2a>
  4035e1:       83 c1 08                add    $0x8,%ecx
  4035e4:       eb ee                   jmp    4035d4 <check+0xc>
  4035e6:       b8 01 00 00 00          mov    $0x1,%eax
  4035eb:       c3                      ret
  4035ec:       b8 00 00 00 00          mov    $0x0,%eax
  4035f1:       c3                      ret
  4035f2:       b8 00 00 00 00          mov    $0x0,%eax
  4035f7:       c3                      ret

00000000004035f8 <gencookie>:
  4035f8:       53                      push   %rbx
  4035f9:       83 c7 01                add    $0x1,%edi
  4035fc:       ff 15 ce 28 00 00       call   *0x28ce(%rip)        # 405ed0 <sr                       andom@GLIBC_2.2.5>
  403602:       ff 15 58 29 00 00       call   *0x2958(%rip)        # 405f60 <ra                       ndom@GLIBC_2.2.5>
  403608:       89 c3                   mov    %eax,%ebx
  40360a:       89 c7                   mov    %eax,%edi
  40360c:       e8 b7 ff ff ff          call   4035c8 <check>
  403611:       85 c0                   test   %eax,%eax
  403613:       74 ed                   je     403602 <gencookie+0xa>
  403615:       89 d8                   mov    %ebx,%eax
  403617:       5b                      pop    %rbx
  403618:       c3                      ret

Disassembly of section .fini:

000000000040361c <_fini>:
  40361c:       f3 0f 1e fa             endbr64
  403620:       48 83 ec 08             sub    $0x8,%rsp
  403624:       48 83 c4 08             add    $0x8,%rsp
  403628:       c3                      ret
